---
triple:          'arm64-apple-darwin'
binary-path:     main
relocations:
  - { offsetInCU: 0x3F, offset: 0x3F, size: 0x8, addend: 0x0, symName: _allTextKeys, symObjAddr: 0x4E2F0, symBinAddr: 0x100010000, symSize: 0x0 }
  - { offsetInCU: 0x7D13, offset: 0x7D13, size: 0x8, addend: 0x0, symName: __ZNSt3__124__put_character_sequenceB8ue170006IcNS_11char_traitsIcEEEERNS_13basic_ostreamIT_T0_EES7_PKS4_m, symObjAddr: 0x84D0, symBinAddr: 0x10000A440, symSize: 0x1F4 }
  - { offsetInCU: 0x986C, offset: 0x986C, size: 0x8, addend: 0x0, symName: __ZNSt3__1eqB8ue170006IPNS_12basic_stringIcNS_11char_traitsIcEENS_9allocatorIcEEEEEEbRKNS_11__wrap_iterIT_EESC_, symObjAddr: 0x130, symBinAddr: 0x1000020A0, symSize: 0x48 }
  - { offsetInCU: 0x98AF, offset: 0x98AF, size: 0x8, addend: 0x0, symName: __ZNSt3__14findB8ue170006INS_11__wrap_iterIPNS_12basic_stringIcNS_11char_traitsIcEENS_9allocatorIcEEEEEES7_EET_SA_SA_RKT0_, symObjAddr: 0x178, symBinAddr: 0x1000020E8, symSize: 0x78 }
  - { offsetInCU: 0x9917, offset: 0x9917, size: 0x8, addend: 0x0, symName: __ZNSt3__1lsB8ue170006IcNS_11char_traitsIcEEEERNS_13basic_ostreamIT_T0_EES7_RKNS_8__iom_t5E, symObjAddr: 0x195C, symBinAddr: 0x1000038CC, symSize: 0x40 }
  - { offsetInCU: 0x9963, offset: 0x9963, size: 0x8, addend: 0x0, symName: __ZNSt3__1lsB8ue170006INS_11char_traitsIcEEEERNS_13basic_ostreamIcT_EES6_PKc, symObjAddr: 0x199C, symBinAddr: 0x10000390C, symSize: 0x48 }
  - { offsetInCU: 0x99A9, offset: 0x99A9, size: 0x8, addend: 0x0, symName: __ZNSt3__15fixedB8ue170006ERNS_8ios_baseE, symObjAddr: 0x1A24, symBinAddr: 0x100003994, symSize: 0x30 }
  - { offsetInCU: 0x99D7, offset: 0x99D7, size: 0x8, addend: 0x0, symName: __ZNSt3__112setprecisionB8ue170006Ei, symObjAddr: 0x1A54, symBinAddr: 0x1000039C4, symSize: 0x2C }
  - { offsetInCU: 0x9A03, offset: 0x9A03, size: 0x8, addend: 0x0, symName: __ZNSt3__14endlB8ue170006IcNS_11char_traitsIcEEEERNS_13basic_ostreamIT_T0_EES7_, symObjAddr: 0x1AAC, symBinAddr: 0x100003A1C, symSize: 0x58 }
  - { offsetInCU: 0x9A43, offset: 0x9A43, size: 0x8, addend: 0x0, symName: __ZNSt3__112__to_addressB8ue170006INS_12basic_stringIcNS_11char_traitsIcEENS_9allocatorIcEEEEEEPT_S8_, symObjAddr: 0x2910, symBinAddr: 0x100004880, symSize: 0x14 }
  - { offsetInCU: 0x9A78, offset: 0x9A78, size: 0x8, addend: 0x0, symName: __ZNSt3__130__libcpp_is_constant_evaluatedB8ue170006Ev, symObjAddr: 0x2A30, symBinAddr: 0x1000049A0, symSize: 0xC }
  - { offsetInCU: 0x9A95, offset: 0x9A95, size: 0x8, addend: 0x0, symName: __ZNSt3__119__libcpp_deallocateB8ue170006EPvmm, symObjAddr: 0x2A3C, symBinAddr: 0x1000049AC, symSize: 0x30 }
  - { offsetInCU: 0x9ADD, offset: 0x9ADD, size: 0x8, addend: 0x0, symName: __ZNSt3__127__do_deallocate_handle_sizeB8ue170006IJEEEvPvmDpT_, symObjAddr: 0x2A6C, symBinAddr: 0x1000049DC, symSize: 0x28 }
  - { offsetInCU: 0x9B1B, offset: 0x9B1B, size: 0x8, addend: 0x0, symName: __ZNSt3__124__libcpp_operator_deleteB8ue170006IJPvEEEvDpT_, symObjAddr: 0x2A94, symBinAddr: 0x100004A04, symSize: 0x24 }
  - { offsetInCU: 0x9B50, offset: 0x9B50, size: 0x8, addend: 0x0, symName: __ZNSt3__113__rewrap_iterB8ue170006INS_11__wrap_iterIPNS_12basic_stringIcNS_11char_traitsIcEENS_9allocatorIcEEEEEES8_NS_18__unwrap_iter_implIS9_Lb1EEEEET_SC_T0_, symObjAddr: 0x2BD4, symBinAddr: 0x100004B44, symSize: 0x60 }
  - { offsetInCU: 0x9BA5, offset: 0x9BA5, size: 0x8, addend: 0x0, symName: __ZNSt3__111__find_implB8ue170006IPNS_12basic_stringIcNS_11char_traitsIcEENS_9allocatorIcEEEES7_S6_NS_10__identityEEET_S9_T0_RKT1_RT2_, symObjAddr: 0x2C34, symBinAddr: 0x100004BA4, symSize: 0x7C }
  - { offsetInCU: 0x9C1F, offset: 0x9C1F, size: 0x8, addend: 0x0, symName: __ZNSt3__113__unwrap_iterB8ue170006INS_11__wrap_iterIPNS_12basic_stringIcNS_11char_traitsIcEENS_9allocatorIcEEEEEENS_18__unwrap_iter_implIS9_Lb1EEELi0EEEDTclsrT0_8__unwrapclsr3stdE7declvalIT_EEEESD_, symObjAddr: 0x2CB0, symBinAddr: 0x100004C20, symSize: 0x2C }
  - { offsetInCU: 0x9CB6, offset: 0x9CB6, size: 0x8, addend: 0x0, symName: __ZNSt3__112__to_addressB8ue170006INS_11__wrap_iterIPNS_12basic_stringIcNS_11char_traitsIcEENS_9allocatorIcEEEEEEvEEu7__decayIDTclsr19__to_address_helperIT_EE6__callclsr3stdE7declvalIRKSA_EEEEESC_, symObjAddr: 0x2D74, symBinAddr: 0x100004CE4, symSize: 0x24 }
  - { offsetInCU: 0x9D91, offset: 0x9D91, size: 0x8, addend: 0x0, symName: __ZNSt3__1eqB8ue170006INS_9allocatorIcEEEEbRKNS_12basic_stringIcNS_11char_traitsIcEET_EES9_, symObjAddr: 0x2E3C, symBinAddr: 0x100004DAC, symSize: 0x148 }
  - { offsetInCU: 0x9E04, offset: 0x9E04, size: 0x8, addend: 0x0, symName: __ZNSt3__18__invokeB8ue170006IRNS_10__identityEJRNS_12basic_stringIcNS_11char_traitsIcEENS_9allocatorIcEEEEEEEDTclclsr3stdE7declvalIT_EEspclsr3stdE7declvalIT0_EEEEOSA_DpOSB_, symObjAddr: 0x2F84, symBinAddr: 0x100004EF4, symSize: 0x2C }
  - { offsetInCU: 0x9E55, offset: 0x9E55, size: 0x8, addend: 0x0, symName: __ZNSt3__112__to_addressB8ue170006IKcEEPT_S3_, symObjAddr: 0x3198, symBinAddr: 0x100005108, symSize: 0x14 }
  - { offsetInCU: 0x9EEA, offset: 0x9EEA, size: 0x8, addend: 0x0, symName: __ZNSt3__13maxB8ue170006ImEERKT_S3_S3_, symObjAddr: 0x3878, symBinAddr: 0x1000057E8, symSize: 0x2C }
  - { offsetInCU: 0x9F2D, offset: 0x9F2D, size: 0x8, addend: 0x0, symName: __ZNSt3__13minB8ue170006ImEERKT_S3_S3_, symObjAddr: 0x38A4, symBinAddr: 0x100005814, symSize: 0x2C }
  - { offsetInCU: 0xA171, offset: 0xA171, size: 0x8, addend: 0x0, symName: __ZNSt3__13minB8ue170006ImNS_6__lessIvvEEEERKT_S5_S5_T0_, symObjAddr: 0x3930, symBinAddr: 0x1000058A0, symSize: 0x54 }
  - { offsetInCU: 0xA210, offset: 0xA210, size: 0x8, addend: 0x0, symName: __ZNSt3__120__throw_length_errorB8ue170006EPKc, symObjAddr: 0x3A10, symBinAddr: 0x100005980, symSize: 0x64 }
  - { offsetInCU: 0xA23A, offset: 0xA23A, size: 0x8, addend: 0x0, symName: __ZNSt3__13maxB8ue170006ImNS_6__lessIvvEEEERKT_S5_S5_T0_, symObjAddr: 0x3AF4, symBinAddr: 0x100005A64, symSize: 0x54 }
  - { offsetInCU: 0xA294, offset: 0xA294, size: 0x8, addend: 0x0, symName: __ZNSt3__119__allocate_at_leastB8ue170006INS_9allocatorINS_12basic_stringIcNS_11char_traitsIcEENS1_IcEEEEEEEENS_19__allocation_resultINS_16allocator_traitsIT_E7pointerEEERSA_m, symObjAddr: 0x3C64, symBinAddr: 0x100005BD4, symSize: 0x40 }
  - { offsetInCU: 0xA2D7, offset: 0xA2D7, size: 0x8, addend: 0x0, symName: __ZNSt3__117__libcpp_allocateB8ue170006Emm, symObjAddr: 0x3E1C, symBinAddr: 0x100005D8C, symSize: 0x28 }
  - { offsetInCU: 0xA314, offset: 0xA314, size: 0x8, addend: 0x0, symName: __ZNSt3__121__libcpp_operator_newB8ue170006IJmEEEPvDpT_, symObjAddr: 0x3E44, symBinAddr: 0x100005DB4, symSize: 0x24 }
  - { offsetInCU: 0xA34D, offset: 0xA34D, size: 0x8, addend: 0x0, symName: __ZNSt3__142__uninitialized_allocator_move_if_noexceptB8ue170006INS_9allocatorINS_12basic_stringIcNS_11char_traitsIcEENS1_IcEEEEEENS_16reverse_iteratorIPS6_EESA_SA_EET2_RT_T0_T1_SB_, symObjAddr: 0x3ECC, symBinAddr: 0x100005E3C, symSize: 0x134 }
  - { offsetInCU: 0xA3ED, offset: 0xA3ED, size: 0x8, addend: 0x0, symName: __ZNSt3__14swapB8ue170006IPNS_12basic_stringIcNS_11char_traitsIcEENS_9allocatorIcEEEEEEvRT_S9_, symObjAddr: 0x404C, symBinAddr: 0x100005FBC, symSize: 0x3C }
  - { offsetInCU: 0xA43E, offset: 0xA43E, size: 0x8, addend: 0x0, symName: __ZNSt3__122__make_exception_guardB8ue170006INS_29_AllocatorDestroyRangeReverseINS_9allocatorINS_12basic_stringIcNS_11char_traitsIcEENS2_IcEEEEEENS_16reverse_iteratorIPS7_EEEEEENS_28__exception_guard_exceptionsIT_EESE_, symObjAddr: 0x4150, symBinAddr: 0x1000060C0, symSize: 0x4C }
  - { offsetInCU: 0xA474, offset: 0xA474, size: 0x8, addend: 0x0, symName: __ZNSt3__1neB8ue170006IPNS_12basic_stringIcNS_11char_traitsIcEENS_9allocatorIcEEEES7_EEbRKNS_16reverse_iteratorIT_EERKNS8_IT0_EE, symObjAddr: 0x41E0, symBinAddr: 0x100006150, symSize: 0x48 }
  - { offsetInCU: 0xA4C0, offset: 0xA4C0, size: 0x8, addend: 0x0, symName: __ZNSt3__112__to_addressB8ue170006INS_16reverse_iteratorIPNS_12basic_stringIcNS_11char_traitsIcEENS_9allocatorIcEEEEEEvEEu7__decayIDTclsr19__to_address_helperIT_EE6__callclsr3stdE7declvalIRKSA_EEEEESC_, symObjAddr: 0x4228, symBinAddr: 0x100006198, symSize: 0x24 }
  - { offsetInCU: 0xA51F, offset: 0xA51F, size: 0x8, addend: 0x0, symName: __ZNSt3__119__allocator_destroyB8ue170006INS_9allocatorINS_12basic_stringIcNS_11char_traitsIcEENS1_IcEEEEEENS_16reverse_iteratorINS8_IPS6_EEEESB_EEvRT_T0_T1_, symObjAddr: 0x44E4, symBinAddr: 0x100006454, symSize: 0x70 }
  - { offsetInCU: 0xA584, offset: 0xA584, size: 0x8, addend: 0x0, symName: __ZNSt3__1neB8ue170006INS_16reverse_iteratorIPNS_12basic_stringIcNS_11char_traitsIcEENS_9allocatorIcEEEEEES9_EEbRKNS1_IT_EERKNS1_IT0_EE, symObjAddr: 0x4590, symBinAddr: 0x100006500, symSize: 0x60 }
  - { offsetInCU: 0xA5D0, offset: 0xA5D0, size: 0x8, addend: 0x0, symName: __ZNSt3__112__to_addressB8ue170006INS_16reverse_iteratorINS1_IPNS_12basic_stringIcNS_11char_traitsIcEENS_9allocatorIcEEEEEEEEvEEu7__decayIDTclsr19__to_address_helperIT_EE6__callclsr3stdE7declvalIRKSB_EEEEESD_, symObjAddr: 0x45F0, symBinAddr: 0x100006560, symSize: 0x24 }
  - { offsetInCU: 0xA62F, offset: 0xA62F, size: 0x8, addend: 0x0, symName: __ZNSt3__118__constexpr_strlenB8ue170006EPKc, symObjAddr: 0x4B0C, symBinAddr: 0x100006A7C, symSize: 0x24 }
  - { offsetInCU: 0xA65B, offset: 0xA65B, size: 0x8, addend: 0x0, symName: __ZNSt3__122__make_exception_guardB8ue170006INS_6vectorIP4ItemNS_9allocatorIS3_EEE16__destroy_vectorEEENS_28__exception_guard_exceptionsIT_EES9_, symObjAddr: 0x4C48, symBinAddr: 0x100006BB8, symSize: 0x40 }
  - { offsetInCU: 0xA690, offset: 0xA690, size: 0x8, addend: 0x0, symName: __ZNSt3__119__allocate_at_leastB8ue170006INS_9allocatorIP4ItemEEEENS_19__allocation_resultINS_16allocator_traitsIT_E7pointerEEERS7_m, symObjAddr: 0x5050, symBinAddr: 0x100006FC0, symSize: 0x40 }
  - { offsetInCU: 0xA6D3, offset: 0xA6D3, size: 0x8, addend: 0x0, symName: __ZNSt3__112__to_addressB8ue170006IP4ItemEEPT_S4_, symObjAddr: 0x53A0, symBinAddr: 0x100007310, symSize: 0x14 }
  - { offsetInCU: 0xA708, offset: 0xA708, size: 0x8, addend: 0x0, symName: __ZNSt3__112__to_addressB8ue170006IP8CategoryEEPT_S4_, symObjAddr: 0x5D50, symBinAddr: 0x100007CC0, symSize: 0x14 }
  - { offsetInCU: 0xA73D, offset: 0xA73D, size: 0x8, addend: 0x0, symName: __ZNSt3__119__allocate_at_leastB8ue170006INS_9allocatorIP8CategoryEEEENS_19__allocation_resultINS_16allocator_traitsIT_E7pointerEEERS7_m, symObjAddr: 0x66A0, symBinAddr: 0x100008610, symSize: 0x40 }
  - { offsetInCU: 0xA780, offset: 0xA780, size: 0x8, addend: 0x0, symName: __ZNSt3__142__uninitialized_allocator_move_if_noexceptB8ue170006INS_9allocatorIP8CategoryEENS_16reverse_iteratorIPS3_EES7_S3_vEET1_RT_T0_SB_S8_, symObjAddr: 0x6880, symBinAddr: 0x1000087F0, symSize: 0xE8 }
  - { offsetInCU: 0xA7FD, offset: 0xA7FD, size: 0x8, addend: 0x0, symName: __ZNSt3__14swapB8ue170006IPP8CategoryEEvRT_S5_, symObjAddr: 0x69B4, symBinAddr: 0x100008924, symSize: 0x3C }
  - { offsetInCU: 0xA84E, offset: 0xA84E, size: 0x8, addend: 0x0, symName: __ZNSt3__1neB8ue170006IPP8CategoryS3_EEbRKNS_16reverse_iteratorIT_EERKNS4_IT0_EE, symObjAddr: 0x6A9C, symBinAddr: 0x100008A0C, symSize: 0x48 }
  - { offsetInCU: 0xA8BF, offset: 0xA8BF, size: 0x8, addend: 0x0, symName: __ZNSt3__114__construct_atB8ue170006IP8CategoryJS2_EPS2_EEPT_S5_DpOT0_, symObjAddr: 0x6AE4, symBinAddr: 0x100008A54, symSize: 0x2C }
  - { offsetInCU: 0xA92F, offset: 0xA92F, size: 0x8, addend: 0x0, symName: __ZNSt3__112__to_addressB8ue170006INS_16reverse_iteratorIPP8CategoryEEvEEu7__decayIDTclsr19__to_address_helperIT_EE6__callclsr3stdE7declvalIRKS6_EEEEES8_, symObjAddr: 0x6B10, symBinAddr: 0x100008A80, symSize: 0x24 }
  - { offsetInCU: 0xA965, offset: 0xA965, size: 0x8, addend: 0x0, symName: __ZNSt3__14moveB8ue170006INS_16reverse_iteratorIPP8CategoryEES5_EET0_T_S7_S6_, symObjAddr: 0x6B7C, symBinAddr: 0x100008AEC, symSize: 0x78 }
  - { offsetInCU: 0xA9E8, offset: 0xA9E8, size: 0x8, addend: 0x0, symName: __ZNSt3__16__moveB8ue170006INS_17_ClassicAlgPolicyENS_16reverse_iteratorIPP8CategoryEES6_S6_EENS_4pairIT0_T2_EES8_T1_S9_, symObjAddr: 0x6C64, symBinAddr: 0x100008BD4, symSize: 0x64 }
  - { offsetInCU: 0xAA54, offset: 0xAA54, size: 0x8, addend: 0x0, symName: __ZNSt3__123__dispatch_copy_or_moveB8ue170006INS_17_ClassicAlgPolicyENS_11__move_loopIS1_EENS_14__move_trivialENS_16reverse_iteratorIPP8CategoryEES9_S9_EENS_4pairIT2_T4_EESB_T3_SC_, symObjAddr: 0x6CC8, symBinAddr: 0x100008C38, symSize: 0x64 }
  - { offsetInCU: 0xAAD2, offset: 0xAAD2, size: 0x8, addend: 0x0, symName: __ZNSt3__121__unwrap_and_dispatchB8ue170006INS_10__overloadINS_11__move_loopINS_17_ClassicAlgPolicyEEENS_14__move_trivialEEENS_16reverse_iteratorIPP8CategoryEESB_SB_Li0EEENS_4pairIT0_T2_EESD_T1_SE_, symObjAddr: 0x6D2C, symBinAddr: 0x100008C9C, symSize: 0x12C }
  - { offsetInCU: 0xAB62, offset: 0xAB62, size: 0x8, addend: 0x0, symName: __ZNSt3__114__unwrap_rangeB8ue170006INS_16reverse_iteratorIPP8CategoryEES5_EENS_4pairIT0_S7_EET_S9_, symObjAddr: 0x6E58, symBinAddr: 0x100008DC8, symSize: 0x84 }
  - { offsetInCU: 0xACF5, offset: 0xACF5, size: 0x8, addend: 0x0, symName: __ZNSt3__113__unwrap_iterB8ue170006INS_16reverse_iteratorIPP8CategoryEENS_18__unwrap_iter_implIS5_Lb0EEELi0EEEDTclsrT0_8__unwrapclsr3stdE7declvalIT_EEEES9_, symObjAddr: 0x6F7C, symBinAddr: 0x100008EEC, symSize: 0x44 }
  - { offsetInCU: 0xAD39, offset: 0xAD39, size: 0x8, addend: 0x0, symName: __ZNSt3__19make_pairB8ue170006INS_16reverse_iteratorIPP8CategoryEES5_EENS_4pairINS_18__unwrap_ref_decayIT_E4typeENS7_IT0_E4typeEEEOS8_OSB_, symObjAddr: 0x6FC0, symBinAddr: 0x100008F30, symSize: 0x38 }
  - { offsetInCU: 0xAD88, offset: 0xAD88, size: 0x8, addend: 0x0, symName: __ZNSt3__114__rewrap_rangeB8ue170006INS_16reverse_iteratorIPP8CategoryEES5_EET_S6_T0_, symObjAddr: 0x6FF8, symBinAddr: 0x100008F68, symSize: 0x5C }
  - { offsetInCU: 0xADD4, offset: 0xADD4, size: 0x8, addend: 0x0, symName: __ZNSt3__113__rewrap_iterB8ue170006INS_16reverse_iteratorIPP8CategoryEES5_NS_18__unwrap_iter_implIS5_Lb0EEEEET_S8_T0_, symObjAddr: 0x7054, symBinAddr: 0x100008FC4, symSize: 0x88 }
  - { offsetInCU: 0xAF0E, offset: 0xAF0E, size: 0x8, addend: 0x0, symName: __ZNSt3__142__uninitialized_allocator_move_if_noexceptB8ue170006INS_9allocatorIP4ItemEENS_16reverse_iteratorIPS3_EES7_S3_vEET1_RT_T0_SB_S8_, symObjAddr: 0x7A18, symBinAddr: 0x100009988, symSize: 0xE8 }
  - { offsetInCU: 0xAF8B, offset: 0xAF8B, size: 0x8, addend: 0x0, symName: __ZNSt3__14swapB8ue170006IPP4ItemEEvRT_S5_, symObjAddr: 0x7B4C, symBinAddr: 0x100009ABC, symSize: 0x3C }
  - { offsetInCU: 0xAFDC, offset: 0xAFDC, size: 0x8, addend: 0x0, symName: __ZNSt3__1neB8ue170006IPP4ItemS3_EEbRKNS_16reverse_iteratorIT_EERKNS4_IT0_EE, symObjAddr: 0x7B88, symBinAddr: 0x100009AF8, symSize: 0x48 }
  - { offsetInCU: 0xB04D, offset: 0xB04D, size: 0x8, addend: 0x0, symName: __ZNSt3__114__construct_atB8ue170006IP4ItemJS2_EPS2_EEPT_S5_DpOT0_, symObjAddr: 0x7BD0, symBinAddr: 0x100009B40, symSize: 0x2C }
  - { offsetInCU: 0xB0BD, offset: 0xB0BD, size: 0x8, addend: 0x0, symName: __ZNSt3__112__to_addressB8ue170006INS_16reverse_iteratorIPP4ItemEEvEEu7__decayIDTclsr19__to_address_helperIT_EE6__callclsr3stdE7declvalIRKS6_EEEEES8_, symObjAddr: 0x7BFC, symBinAddr: 0x100009B6C, symSize: 0x24 }
  - { offsetInCU: 0xB0F3, offset: 0xB0F3, size: 0x8, addend: 0x0, symName: __ZNSt3__14moveB8ue170006INS_16reverse_iteratorIPP4ItemEES5_EET0_T_S7_S6_, symObjAddr: 0x7C68, symBinAddr: 0x100009BD8, symSize: 0x78 }
  - { offsetInCU: 0xB176, offset: 0xB176, size: 0x8, addend: 0x0, symName: __ZNSt3__16__moveB8ue170006INS_17_ClassicAlgPolicyENS_16reverse_iteratorIPP4ItemEES6_S6_EENS_4pairIT0_T2_EES8_T1_S9_, symObjAddr: 0x7D50, symBinAddr: 0x100009CC0, symSize: 0x64 }
  - { offsetInCU: 0xB1E2, offset: 0xB1E2, size: 0x8, addend: 0x0, symName: __ZNSt3__123__dispatch_copy_or_moveB8ue170006INS_17_ClassicAlgPolicyENS_11__move_loopIS1_EENS_14__move_trivialENS_16reverse_iteratorIPP4ItemEES9_S9_EENS_4pairIT2_T4_EESB_T3_SC_, symObjAddr: 0x7DB4, symBinAddr: 0x100009D24, symSize: 0x64 }
  - { offsetInCU: 0xB260, offset: 0xB260, size: 0x8, addend: 0x0, symName: __ZNSt3__121__unwrap_and_dispatchB8ue170006INS_10__overloadINS_11__move_loopINS_17_ClassicAlgPolicyEEENS_14__move_trivialEEENS_16reverse_iteratorIPP4ItemEESB_SB_Li0EEENS_4pairIT0_T2_EESD_T1_SE_, symObjAddr: 0x7E18, symBinAddr: 0x100009D88, symSize: 0x12C }
  - { offsetInCU: 0xB2F0, offset: 0xB2F0, size: 0x8, addend: 0x0, symName: __ZNSt3__114__unwrap_rangeB8ue170006INS_16reverse_iteratorIPP4ItemEES5_EENS_4pairIT0_S7_EET_S9_, symObjAddr: 0x7F44, symBinAddr: 0x100009EB4, symSize: 0x84 }
  - { offsetInCU: 0xB3E9, offset: 0xB3E9, size: 0x8, addend: 0x0, symName: __ZNSt3__113__unwrap_iterB8ue170006INS_16reverse_iteratorIPP4ItemEENS_18__unwrap_iter_implIS5_Lb0EEELi0EEEDTclsrT0_8__unwrapclsr3stdE7declvalIT_EEEES9_, symObjAddr: 0x8068, symBinAddr: 0x100009FD8, symSize: 0x44 }
  - { offsetInCU: 0xB42D, offset: 0xB42D, size: 0x8, addend: 0x0, symName: __ZNSt3__19make_pairB8ue170006INS_16reverse_iteratorIPP4ItemEES5_EENS_4pairINS_18__unwrap_ref_decayIT_E4typeENS7_IT0_E4typeEEEOS8_OSB_, symObjAddr: 0x80AC, symBinAddr: 0x10000A01C, symSize: 0x38 }
  - { offsetInCU: 0xB47C, offset: 0xB47C, size: 0x8, addend: 0x0, symName: __ZNSt3__114__rewrap_rangeB8ue170006INS_16reverse_iteratorIPP4ItemEES5_EET_S6_T0_, symObjAddr: 0x80E4, symBinAddr: 0x10000A054, symSize: 0x5C }
  - { offsetInCU: 0xB4C8, offset: 0xB4C8, size: 0x8, addend: 0x0, symName: __ZNSt3__113__rewrap_iterB8ue170006INS_16reverse_iteratorIPP4ItemEES5_NS_18__unwrap_iter_implIS5_Lb0EEEEET_S8_T0_, symObjAddr: 0x8140, symBinAddr: 0x10000A0B0, symSize: 0x88 }
  - { offsetInCU: 0xB589, offset: 0xB589, size: 0x8, addend: 0x0, symName: __ZNSt3__116__pad_and_outputB8ue170006IcNS_11char_traitsIcEEEENS_19ostreambuf_iteratorIT_T0_EES6_PKS4_S8_S8_RNS_8ios_baseES4_, symObjAddr: 0x86E0, symBinAddr: 0x10000A650, symSize: 0x248 }
  - { offsetInCU: 0xB658, offset: 0xB658, size: 0x8, addend: 0x0, symName: __ZNSt3__19use_facetB8ue170006INS_5ctypeIcEEEERKT_RKNS_6localeE, symObjAddr: 0x8C90, symBinAddr: 0x10000AC00, symSize: 0x2C }
  - { offsetInCU: 0xBD67, offset: 0xBD67, size: 0x8, addend: 0x0, symName: __ZSt28__throw_bad_array_new_lengthB8ue170006v, symObjAddr: 0x3DE8, symBinAddr: 0x100005D58, symSize: 0x34 }
  - { offsetInCU: 0xC243, offset: 0xC243, size: 0x8, addend: 0x0, symName: __ZNSt3__16vectorINS_12basic_stringIcNS_11char_traitsIcEENS_9allocatorIcEEEENS4_IS6_EEE26__swap_out_circular_bufferERNS_14__split_bufferIS6_RS7_EE, symObjAddr: 0x36AC, symBinAddr: 0x10000561C, symSize: 0x110 }
  - { offsetInCU: 0xC79B, offset: 0xC79B, size: 0x8, addend: 0x0, symName: __ZNSt3__16vectorIP8CategoryNS_9allocatorIS2_EEE26__swap_out_circular_bufferERNS_14__split_bufferIS2_RS4_EE, symObjAddr: 0x632C, symBinAddr: 0x10000829C, symSize: 0x110 }
  - { offsetInCU: 0xC7F0, offset: 0xC7F0, size: 0x8, addend: 0x0, symName: __ZNSt3__16vectorIP4ItemNS_9allocatorIS2_EEE26__swap_out_circular_bufferERNS_14__split_bufferIS2_RS4_EE, symObjAddr: 0x76B0, symBinAddr: 0x100009620, symSize: 0x110 }
  - { offsetInCU: 0xEC6B, offset: 0xEC6B, size: 0x8, addend: 0x0, symName: __ZNSt3__16vectorINS_12basic_stringIcNS_11char_traitsIcEENS_9allocatorIcEEEENS4_IS6_EEEC1B8ue170006Ev, symObjAddr: 0x0, symBinAddr: 0x100001F70, symSize: 0x2C }
  - { offsetInCU: 0xEC94, offset: 0xEC94, size: 0x8, addend: 0x0, symName: __ZNSt3__16vectorINS_12basic_stringIcNS_11char_traitsIcEENS_9allocatorIcEEEENS4_IS6_EEED1B8ue170006Ev, symObjAddr: 0x2C, symBinAddr: 0x100001F9C, symSize: 0x2C }
  - { offsetInCU: 0xECBD, offset: 0xECBD, size: 0x8, addend: 0x0, symName: __Z22CheckTextKeyUniquenessRKNSt3__112basic_stringIcNS_11char_traitsIcEENS_9allocatorIcEEEE, symObjAddr: 0x58, symBinAddr: 0x100001FC8, symSize: 0xD8 }
  - { offsetInCU: 0xECE5, offset: 0xECE5, size: 0x8, addend: 0x0, symName: __ZNSt3__16vectorINS_12basic_stringIcNS_11char_traitsIcEENS_9allocatorIcEEEENS4_IS6_EEE5beginB8ue170006Ev, symObjAddr: 0x1F0, symBinAddr: 0x100002160, symSize: 0x30 }
  - { offsetInCU: 0xED0B, offset: 0xED0B, size: 0x8, addend: 0x0, symName: __ZNSt3__16vectorINS_12basic_stringIcNS_11char_traitsIcEENS_9allocatorIcEEEENS4_IS6_EEE3endB8ue170006Ev, symObjAddr: 0x220, symBinAddr: 0x100002190, symSize: 0x30 }
  - { offsetInCU: 0xED31, offset: 0xED31, size: 0x8, addend: 0x0, symName: __ZNSt3__16vectorINS_12basic_stringIcNS_11char_traitsIcEENS_9allocatorIcEEEENS4_IS6_EEE9push_backB8ue170006ERKS6_, symObjAddr: 0x250, symBinAddr: 0x1000021C0, symSize: 0x6C }
  - { offsetInCU: 0xED66, offset: 0xED66, size: 0x8, addend: 0x0, symName: __Z5MergeRNSt3__16vectorIP4ItemNS_9allocatorIS2_EEEES6_iii, symObjAddr: 0x2BC, symBinAddr: 0x10000222C, symSize: 0x298 }
  - { offsetInCU: 0xEE1E, offset: 0xEE1E, size: 0x8, addend: 0x0, symName: __ZNSt3__16vectorIP4ItemNS_9allocatorIS2_EEEixB8ue170006Em, symObjAddr: 0x554, symBinAddr: 0x1000024C4, symSize: 0x24 }
  - { offsetInCU: 0xEE53, offset: 0xEE53, size: 0x8, addend: 0x0, symName: __Z9MergeSortRNSt3__16vectorIP4ItemNS_9allocatorIS2_EEEES6_ii, symObjAddr: 0x578, symBinAddr: 0x1000024E8, symSize: 0xA0 }
  - { offsetInCU: 0xEEC8, offset: 0xEEC8, size: 0x8, addend: 0x0, symName: __Z9MergeSortRNSt3__16vectorIP4ItemNS_9allocatorIS2_EEEE, symObjAddr: 0x618, symBinAddr: 0x100002588, symSize: 0x94 }
  - { offsetInCU: 0xEF02, offset: 0xEF02, size: 0x8, addend: 0x0, symName: __ZNKSt3__16vectorIP4ItemNS_9allocatorIS2_EEE4sizeB8ue170006Ev, symObjAddr: 0x6AC, symBinAddr: 0x10000261C, symSize: 0x28 }
  - { offsetInCU: 0xEF27, offset: 0xEF27, size: 0x8, addend: 0x0, symName: __ZNSt3__16vectorIP4ItemNS_9allocatorIS2_EEEC1Em, symObjAddr: 0x6D4, symBinAddr: 0x100002644, symSize: 0x34 }
  - { offsetInCU: 0xEF61, offset: 0xEF61, size: 0x8, addend: 0x0, symName: __ZNSt3__16vectorIP4ItemNS_9allocatorIS2_EEED1B8ue170006Ev, symObjAddr: 0x708, symBinAddr: 0x100002678, symSize: 0x2C }
  - { offsetInCU: 0xEF8A, offset: 0xEF8A, size: 0x8, addend: 0x0, symName: _main, symObjAddr: 0x740, symBinAddr: 0x1000026B0, symSize: 0xF50 }
  - { offsetInCU: 0xF003, offset: 0xF003, size: 0x8, addend: 0x0, symName: __ZNSt3__16vectorIP8CategoryNS_9allocatorIS2_EEEC1B8ue170006Ev, symObjAddr: 0x1690, symBinAddr: 0x100003600, symSize: 0x2C }
  - { offsetInCU: 0xF02C, offset: 0xF02C, size: 0x8, addend: 0x0, symName: __ZNSt3__16vectorIP4ItemNS_9allocatorIS2_EEEC1B8ue170006Ev, symObjAddr: 0x16BC, symBinAddr: 0x10000362C, symSize: 0x2C }
  - { offsetInCU: 0xF054, offset: 0xF054, size: 0x8, addend: 0x0, symName: __ZNSt3__16vectorIP8CategoryNS_9allocatorIS2_EEE9push_backB8ue170006EOS2_, symObjAddr: 0x16E8, symBinAddr: 0x100003658, symSize: 0x6C }
  - { offsetInCU: 0xF08F, offset: 0xF08F, size: 0x8, addend: 0x0, symName: __ZNSt3__112basic_stringIcNS_11char_traitsIcEENS_9allocatorIcEEEC1B8ue170006ILi0EEEPKc, symObjAddr: 0x1754, symBinAddr: 0x1000036C4, symSize: 0x34 }
  - { offsetInCU: 0xF0CD, offset: 0xF0CD, size: 0x8, addend: 0x0, symName: __ZN8CategoryC1ERKNSt3__112basic_stringIcNS0_11char_traitsIcEENS0_9allocatorIcEEEES8_S8_PS_, symObjAddr: 0x1788, symBinAddr: 0x1000036F8, symSize: 0x4C }
  - { offsetInCU: 0xF12D, offset: 0xF12D, size: 0x8, addend: 0x0, symName: __ZNSt3__16vectorIP4ItemNS_9allocatorIS2_EEE9push_backB8ue170006EOS2_, symObjAddr: 0x17D4, symBinAddr: 0x100003744, symSize: 0x6C }
  - { offsetInCU: 0xF163, offset: 0xF163, size: 0x8, addend: 0x0, symName: __ZNSt3__16vectorIP8CategoryNS_9allocatorIS2_EEEixB8ue170006Em, symObjAddr: 0x1840, symBinAddr: 0x1000037B0, symSize: 0x24 }
  - { offsetInCU: 0xF42B, offset: 0xF42B, size: 0x8, addend: 0x0, symName: __ZN7ProductC1ERKNSt3__112basic_stringIcNS0_11char_traitsIcEENS0_9allocatorIcEEEES8_S8_P8Categorydd12DiscountTypei, symObjAddr: 0x1864, symBinAddr: 0x1000037D4, symSize: 0x6C }
  - { offsetInCU: 0xF6A4, offset: 0xF6A4, size: 0x8, addend: 0x0, symName: __ZN7ServiceC1ERKNSt3__112basic_stringIcNS0_11char_traitsIcEENS0_9allocatorIcEEEES8_S8_P8Categorydd12DiscountTypeidddSB_, symObjAddr: 0x18D0, symBinAddr: 0x100003840, symSize: 0x8C }
  - { offsetInCU: 0xF775, offset: 0xF775, size: 0x8, addend: 0x0, symName: __ZNSt3__113basic_ostreamIcNS_11char_traitsIcEEElsB8ue170006EPFRNS_8ios_baseES5_E, symObjAddr: 0x19E4, symBinAddr: 0x100003954, symSize: 0x40 }
  - { offsetInCU: 0xF7A8, offset: 0xF7A8, size: 0x8, addend: 0x0, symName: __ZNSt3__113basic_ostreamIcNS_11char_traitsIcEEElsB8ue170006EPFRS3_S4_E, symObjAddr: 0x1A80, symBinAddr: 0x1000039F0, symSize: 0x2C }
  - { offsetInCU: 0xF7DB, offset: 0xF7DB, size: 0x8, addend: 0x0, symName: __ZNSt3__16vectorIP8CategoryNS_9allocatorIS2_EEED1B8ue170006Ev, symObjAddr: 0x1B04, symBinAddr: 0x100003A74, symSize: 0x2C }
  - { offsetInCU: 0xF804, offset: 0xF804, size: 0x8, addend: 0x0, symName: __ZN8CategoryC2ERKNSt3__112basic_stringIcNS0_11char_traitsIcEENS0_9allocatorIcEEEES8_S8_PS_, symObjAddr: 0x1B30, symBinAddr: 0x100003AA0, symSize: 0xF4 }
  - { offsetInCU: 0xF865, offset: 0xF865, size: 0x8, addend: 0x0, symName: __ZN7ProductC2ERKNSt3__112basic_stringIcNS0_11char_traitsIcEENS0_9allocatorIcEEEES8_S8_P8Categorydd12DiscountTypei, symObjAddr: 0x1C24, symBinAddr: 0x100003B94, symSize: 0x22C }
  - { offsetInCU: 0xF905, offset: 0xF905, size: 0x8, addend: 0x0, symName: __ZN4ItemC2Ev, symObjAddr: 0x1E50, symBinAddr: 0x100003DC0, symSize: 0x24 }
  - { offsetInCU: 0xF930, offset: 0xF930, size: 0x8, addend: 0x0, symName: __ZNK7Product13GetTotalPriceEv, symObjAddr: 0x1E74, symBinAddr: 0x100003DE4, symSize: 0x84 }
  - { offsetInCU: 0xF963, offset: 0xF963, size: 0x8, addend: 0x0, symName: __ZNK4ItemltERKS_, symObjAddr: 0x1EF8, symBinAddr: 0x100003E68, symSize: 0x58 }
  - { offsetInCU: 0xF996, offset: 0xF996, size: 0x8, addend: 0x0, symName: __ZNK7Product17GetEffectivePriceEv, symObjAddr: 0x1F50, symBinAddr: 0x100003EC0, symSize: 0xBC }
  - { offsetInCU: 0xF9C9, offset: 0xF9C9, size: 0x8, addend: 0x0, symName: __ZN7ServiceC2ERKNSt3__112basic_stringIcNS0_11char_traitsIcEENS0_9allocatorIcEEEES8_S8_P8Categorydd12DiscountTypeidddSB_, symObjAddr: 0x200C, symBinAddr: 0x100003F7C, symSize: 0x170 }
  - { offsetInCU: 0xFA9D, offset: 0xFA9D, size: 0x8, addend: 0x0, symName: __ZN7ProductD2Ev, symObjAddr: 0x217C, symBinAddr: 0x1000040EC, symSize: 0xB0 }
  - { offsetInCU: 0xFAC8, offset: 0xFAC8, size: 0x8, addend: 0x0, symName: __ZNK7Service13GetTotalPriceEv, symObjAddr: 0x222C, symBinAddr: 0x10000419C, symSize: 0x84 }
  - { offsetInCU: 0xFAFC, offset: 0xFAFC, size: 0x8, addend: 0x0, symName: __ZNK7Service16GetEffectiveRateEv, symObjAddr: 0x22B0, symBinAddr: 0x100004220, symSize: 0xBC }
  - { offsetInCU: 0xFB2F, offset: 0xFB2F, size: 0x8, addend: 0x0, symName: __ZNSt3__18ios_base4setfB8ue170006Ejj, symObjAddr: 0x236C, symBinAddr: 0x1000042DC, symSize: 0x5C }
  - { offsetInCU: 0xFB83, offset: 0xFB83, size: 0x8, addend: 0x0, symName: __ZNSt3__18ios_base6unsetfB8ue170006Ej, symObjAddr: 0x23C8, symBinAddr: 0x100004338, symSize: 0x28 }
  - { offsetInCU: 0xFBB9, offset: 0xFBB9, size: 0x8, addend: 0x0, symName: __ZNSt3__18__iom_t5C1B8ue170006Ei, symObjAddr: 0x23F0, symBinAddr: 0x100004360, symSize: 0x34 }
  - { offsetInCU: 0xFBF0, offset: 0xFBF0, size: 0x8, addend: 0x0, symName: __ZNSt3__18__iom_t5C2B8ue170006Ei, symObjAddr: 0x2424, symBinAddr: 0x100004394, symSize: 0x20 }
  - { offsetInCU: 0xFC27, offset: 0xFC27, size: 0x8, addend: 0x0, symName: __ZNSt3__16vectorINS_12basic_stringIcNS_11char_traitsIcEENS_9allocatorIcEEEENS4_IS6_EEEC2B8ue170006Ev, symObjAddr: 0x2444, symBinAddr: 0x1000043B4, symSize: 0x44 }
  - { offsetInCU: 0xFC5A, offset: 0xFC5A, size: 0x8, addend: 0x0, symName: __ZNSt3__117__compressed_pairIPNS_12basic_stringIcNS_11char_traitsIcEENS_9allocatorIcEEEENS4_IS6_EEEC1B8ue170006IDnNS_18__default_init_tagEEEOT_OT0_, symObjAddr: 0x2488, symBinAddr: 0x1000043F8, symSize: 0x3C }
  - { offsetInCU: 0xFCB1, offset: 0xFCB1, size: 0x8, addend: 0x0, symName: __ZNSt3__117__compressed_pairIPNS_12basic_stringIcNS_11char_traitsIcEENS_9allocatorIcEEEENS4_IS6_EEEC2B8ue170006IDnNS_18__default_init_tagEEEOT_OT0_, symObjAddr: 0x24C4, symBinAddr: 0x100004434, symSize: 0x40 }
  - { offsetInCU: 0xFD08, offset: 0xFD08, size: 0x8, addend: 0x0, symName: __ZNSt3__122__compressed_pair_elemIPNS_12basic_stringIcNS_11char_traitsIcEENS_9allocatorIcEEEELi0ELb0EEC2B8ue170006IDnvEEOT_, symObjAddr: 0x2504, symBinAddr: 0x100004474, symSize: 0x1C }
  - { offsetInCU: 0xFD49, offset: 0xFD49, size: 0x8, addend: 0x0, symName: __ZNSt3__122__compressed_pair_elemINS_9allocatorINS_12basic_stringIcNS_11char_traitsIcEENS1_IcEEEEEELi1ELb1EEC2B8ue170006ENS_18__default_init_tagE, symObjAddr: 0x2520, symBinAddr: 0x100004490, symSize: 0x2C }
  - { offsetInCU: 0xFD7D, offset: 0xFD7D, size: 0x8, addend: 0x0, symName: __ZNSt3__19allocatorINS_12basic_stringIcNS_11char_traitsIcEENS0_IcEEEEEC2B8ue170006Ev, symObjAddr: 0x254C, symBinAddr: 0x1000044BC, symSize: 0x2C }
  - { offsetInCU: 0xFDA6, offset: 0xFDA6, size: 0x8, addend: 0x0, symName: __ZNSt3__116__non_trivial_ifILb1ENS_9allocatorINS_12basic_stringIcNS_11char_traitsIcEENS1_IcEEEEEEEC2B8ue170006Ev, symObjAddr: 0x2578, symBinAddr: 0x1000044E8, symSize: 0x14 }
  - { offsetInCU: 0xFDCF, offset: 0xFDCF, size: 0x8, addend: 0x0, symName: __ZNSt3__16vectorINS_12basic_stringIcNS_11char_traitsIcEENS_9allocatorIcEEEENS4_IS6_EEED2B8ue170006Ev, symObjAddr: 0x258C, symBinAddr: 0x1000044FC, symSize: 0x3C }
  - { offsetInCU: 0xFDF8, offset: 0xFDF8, size: 0x8, addend: 0x0, symName: __ZNSt3__16vectorINS_12basic_stringIcNS_11char_traitsIcEENS_9allocatorIcEEEENS4_IS6_EEE16__destroy_vectorC1B8ue170006ERS8_, symObjAddr: 0x25C8, symBinAddr: 0x100004538, symSize: 0x34 }
  - { offsetInCU: 0xFE30, offset: 0xFE30, size: 0x8, addend: 0x0, symName: __ZNSt3__16vectorINS_12basic_stringIcNS_11char_traitsIcEENS_9allocatorIcEEEENS4_IS6_EEE16__destroy_vectorclB8ue170006Ev, symObjAddr: 0x25FC, symBinAddr: 0x10000456C, symSize: 0x90 }
  - { offsetInCU: 0xFE55, offset: 0xFE55, size: 0x8, addend: 0x0, symName: __ZNSt3__16vectorINS_12basic_stringIcNS_11char_traitsIcEENS_9allocatorIcEEEENS4_IS6_EEE16__destroy_vectorC2B8ue170006ERS8_, symObjAddr: 0x268C, symBinAddr: 0x1000045FC, symSize: 0x20 }
  - { offsetInCU: 0xFE8D, offset: 0xFE8D, size: 0x8, addend: 0x0, symName: __ZNSt3__16vectorINS_12basic_stringIcNS_11char_traitsIcEENS_9allocatorIcEEEENS4_IS6_EEE7__clearB8ue170006Ev, symObjAddr: 0x26AC, symBinAddr: 0x10000461C, symSize: 0x28 }
  - { offsetInCU: 0xFEB2, offset: 0xFEB2, size: 0x8, addend: 0x0, symName: __ZNKSt3__16vectorINS_12basic_stringIcNS_11char_traitsIcEENS_9allocatorIcEEEENS4_IS6_EEE17__annotate_deleteB8ue170006Ev, symObjAddr: 0x26D4, symBinAddr: 0x100004644, symSize: 0xD4 }
  - { offsetInCU: 0xFED7, offset: 0xFED7, size: 0x8, addend: 0x0, symName: __ZNSt3__116allocator_traitsINS_9allocatorINS_12basic_stringIcNS_11char_traitsIcEENS1_IcEEEEEEE10deallocateB8ue170006ERS7_PS6_m, symObjAddr: 0x27A8, symBinAddr: 0x100004718, symSize: 0x34 }
  - { offsetInCU: 0xFF19, offset: 0xFF19, size: 0x8, addend: 0x0, symName: __ZNSt3__16vectorINS_12basic_stringIcNS_11char_traitsIcEENS_9allocatorIcEEEENS4_IS6_EEE7__allocB8ue170006Ev, symObjAddr: 0x27DC, symBinAddr: 0x10000474C, symSize: 0x28 }
  - { offsetInCU: 0xFF3E, offset: 0xFF3E, size: 0x8, addend: 0x0, symName: __ZNKSt3__16vectorINS_12basic_stringIcNS_11char_traitsIcEENS_9allocatorIcEEEENS4_IS6_EEE8capacityB8ue170006Ev, symObjAddr: 0x2804, symBinAddr: 0x100004774, symSize: 0x40 }
  - { offsetInCU: 0xFF63, offset: 0xFF63, size: 0x8, addend: 0x0, symName: __ZNSt3__16vectorINS_12basic_stringIcNS_11char_traitsIcEENS_9allocatorIcEEEENS4_IS6_EEE22__base_destruct_at_endB8ue170006EPS6_, symObjAddr: 0x2844, symBinAddr: 0x1000047B4, symSize: 0xA0 }
  - { offsetInCU: 0xFFA6, offset: 0xFFA6, size: 0x8, addend: 0x0, symName: __ZNSt3__116allocator_traitsINS_9allocatorINS_12basic_stringIcNS_11char_traitsIcEENS1_IcEEEEEEE7destroyB8ue170006IS6_vEEvRS7_PT_, symObjAddr: 0x28E4, symBinAddr: 0x100004854, symSize: 0x2C }
  - { offsetInCU: 0xFFE3, offset: 0xFFE3, size: 0x8, addend: 0x0, symName: __ZNSt3__19allocatorINS_12basic_stringIcNS_11char_traitsIcEENS0_IcEEEEE7destroyB8ue170006EPS5_, symObjAddr: 0x2924, symBinAddr: 0x100004894, symSize: 0x28 }
  - { offsetInCU: 0x10016, offset: 0x10016, size: 0x8, addend: 0x0, symName: __ZNKSt3__16vectorINS_12basic_stringIcNS_11char_traitsIcEENS_9allocatorIcEEEENS4_IS6_EEE31__annotate_contiguous_containerB8ue170006EPKvSA_SA_SA_, symObjAddr: 0x294C, symBinAddr: 0x1000048BC, symSize: 0x20 }
  - { offsetInCU: 0x10067, offset: 0x10067, size: 0x8, addend: 0x0, symName: __ZNKSt3__16vectorINS_12basic_stringIcNS_11char_traitsIcEENS_9allocatorIcEEEENS4_IS6_EEE4dataB8ue170006Ev, symObjAddr: 0x296C, symBinAddr: 0x1000048DC, symSize: 0x28 }
  - { offsetInCU: 0x1008C, offset: 0x1008C, size: 0x8, addend: 0x0, symName: __ZNKSt3__16vectorINS_12basic_stringIcNS_11char_traitsIcEENS_9allocatorIcEEEENS4_IS6_EEE4sizeB8ue170006Ev, symObjAddr: 0x2994, symBinAddr: 0x100004904, symSize: 0x28 }
  - { offsetInCU: 0x100B1, offset: 0x100B1, size: 0x8, addend: 0x0, symName: __ZNSt3__19allocatorINS_12basic_stringIcNS_11char_traitsIcEENS0_IcEEEEE10deallocateB8ue170006EPS5_m, symObjAddr: 0x29BC, symBinAddr: 0x10000492C, symSize: 0x74 }
  - { offsetInCU: 0x100F2, offset: 0x100F2, size: 0x8, addend: 0x0, symName: __ZNSt3__117__compressed_pairIPNS_12basic_stringIcNS_11char_traitsIcEENS_9allocatorIcEEEENS4_IS6_EEE6secondB8ue170006Ev, symObjAddr: 0x2AB8, symBinAddr: 0x100004A28, symSize: 0x24 }
  - { offsetInCU: 0x10117, offset: 0x10117, size: 0x8, addend: 0x0, symName: __ZNSt3__122__compressed_pair_elemINS_9allocatorINS_12basic_stringIcNS_11char_traitsIcEENS1_IcEEEEEELi1ELb1EE5__getB8ue170006Ev, symObjAddr: 0x2ADC, symBinAddr: 0x100004A4C, symSize: 0x14 }
  - { offsetInCU: 0x1013C, offset: 0x1013C, size: 0x8, addend: 0x0, symName: __ZNKSt3__16vectorINS_12basic_stringIcNS_11char_traitsIcEENS_9allocatorIcEEEENS4_IS6_EEE9__end_capB8ue170006Ev, symObjAddr: 0x2AF0, symBinAddr: 0x100004A60, symSize: 0x28 }
  - { offsetInCU: 0x10161, offset: 0x10161, size: 0x8, addend: 0x0, symName: __ZNKSt3__117__compressed_pairIPNS_12basic_stringIcNS_11char_traitsIcEENS_9allocatorIcEEEENS4_IS6_EEE5firstB8ue170006Ev, symObjAddr: 0x2B18, symBinAddr: 0x100004A88, symSize: 0x24 }
  - { offsetInCU: 0x10186, offset: 0x10186, size: 0x8, addend: 0x0, symName: __ZNKSt3__122__compressed_pair_elemIPNS_12basic_stringIcNS_11char_traitsIcEENS_9allocatorIcEEEELi0ELb0EE5__getB8ue170006Ev, symObjAddr: 0x2B3C, symBinAddr: 0x100004AAC, symSize: 0x14 }
  - { offsetInCU: 0x101AB, offset: 0x101AB, size: 0x8, addend: 0x0, symName: __ZNSt3__16vectorINS_12basic_stringIcNS_11char_traitsIcEENS_9allocatorIcEEEENS4_IS6_EEE11__make_iterB8ue170006EPS6_, symObjAddr: 0x2B50, symBinAddr: 0x100004AC0, symSize: 0x30 }
  - { offsetInCU: 0x101DF, offset: 0x101DF, size: 0x8, addend: 0x0, symName: __ZNSt3__111__wrap_iterIPNS_12basic_stringIcNS_11char_traitsIcEENS_9allocatorIcEEEEEC1B8ue170006ES7_, symObjAddr: 0x2B80, symBinAddr: 0x100004AF0, symSize: 0x34 }
  - { offsetInCU: 0x10216, offset: 0x10216, size: 0x8, addend: 0x0, symName: __ZNSt3__111__wrap_iterIPNS_12basic_stringIcNS_11char_traitsIcEENS_9allocatorIcEEEEEC2B8ue170006ES7_, symObjAddr: 0x2BB4, symBinAddr: 0x100004B24, symSize: 0x20 }
  - { offsetInCU: 0x1024D, offset: 0x1024D, size: 0x8, addend: 0x0, symName: __ZNSt3__118__unwrap_iter_implINS_11__wrap_iterIPNS_12basic_stringIcNS_11char_traitsIcEENS_9allocatorIcEEEEEELb1EE8__rewrapB8ue170006ES9_S8_, symObjAddr: 0x2CDC, symBinAddr: 0x100004C4C, symSize: 0x5C }
  - { offsetInCU: 0x1027E, offset: 0x1027E, size: 0x8, addend: 0x0, symName: __ZNKSt3__111__wrap_iterIPNS_12basic_stringIcNS_11char_traitsIcEENS_9allocatorIcEEEEEplB8ue170006El, symObjAddr: 0x2D38, symBinAddr: 0x100004CA8, symSize: 0x3C }
  - { offsetInCU: 0x102BF, offset: 0x102BF, size: 0x8, addend: 0x0, symName: __ZNSt3__111__wrap_iterIPNS_12basic_stringIcNS_11char_traitsIcEENS_9allocatorIcEEEEEpLB8ue170006El, symObjAddr: 0x2D98, symBinAddr: 0x100004D08, symSize: 0x30 }
  - { offsetInCU: 0x102FC, offset: 0x102FC, size: 0x8, addend: 0x0, symName: __ZNSt3__119__to_address_helperINS_11__wrap_iterIPNS_12basic_stringIcNS_11char_traitsIcEENS_9allocatorIcEEEEEEvE6__callB8ue170006ERKS9_, symObjAddr: 0x2DC8, symBinAddr: 0x100004D38, symSize: 0x30 }
  - { offsetInCU: 0x1031F, offset: 0x1031F, size: 0x8, addend: 0x0, symName: __ZNSt3__114pointer_traitsINS_11__wrap_iterIPNS_12basic_stringIcNS_11char_traitsIcEENS_9allocatorIcEEEEEEE10to_addressB8ue170006ES9_, symObjAddr: 0x2DF8, symBinAddr: 0x100004D68, symSize: 0x2C }
  - { offsetInCU: 0x10342, offset: 0x10342, size: 0x8, addend: 0x0, symName: __ZNKSt3__111__wrap_iterIPNS_12basic_stringIcNS_11char_traitsIcEENS_9allocatorIcEEEEE4baseB8ue170006Ev, symObjAddr: 0x2E24, symBinAddr: 0x100004D94, symSize: 0x18 }
  - { offsetInCU: 0x10367, offset: 0x10367, size: 0x8, addend: 0x0, symName: __ZNKSt3__112basic_stringIcNS_11char_traitsIcEENS_9allocatorIcEEE4sizeB8ue170006Ev, symObjAddr: 0x2FB0, symBinAddr: 0x100004F20, symSize: 0x54 }
  - { offsetInCU: 0x1038C, offset: 0x1038C, size: 0x8, addend: 0x0, symName: __ZNKSt3__112basic_stringIcNS_11char_traitsIcEENS_9allocatorIcEEE4dataB8ue170006Ev, symObjAddr: 0x3004, symBinAddr: 0x100004F74, symSize: 0x28 }
  - { offsetInCU: 0x103B1, offset: 0x103B1, size: 0x8, addend: 0x0, symName: __ZNKSt3__112basic_stringIcNS_11char_traitsIcEENS_9allocatorIcEEE9__is_longB8ue170006Ev, symObjAddr: 0x302C, symBinAddr: 0x100004F9C, symSize: 0x74 }
  - { offsetInCU: 0x103D6, offset: 0x103D6, size: 0x8, addend: 0x0, symName: __ZNSt3__111char_traitsIcE7compareB8ue170006EPKcS3_m, symObjAddr: 0x30A0, symBinAddr: 0x100005010, symSize: 0x64 }
  - { offsetInCU: 0x10415, offset: 0x10415, size: 0x8, addend: 0x0, symName: __ZNKSt3__112basic_stringIcNS_11char_traitsIcEENS_9allocatorIcEEE15__get_long_sizeB8ue170006Ev, symObjAddr: 0x3104, symBinAddr: 0x100005074, symSize: 0x28 }
  - { offsetInCU: 0x1043A, offset: 0x1043A, size: 0x8, addend: 0x0, symName: __ZNKSt3__112basic_stringIcNS_11char_traitsIcEENS_9allocatorIcEEE16__get_short_sizeB8ue170006Ev, symObjAddr: 0x312C, symBinAddr: 0x10000509C, symSize: 0x34 }
  - { offsetInCU: 0x1045F, offset: 0x1045F, size: 0x8, addend: 0x0, symName: __ZNKSt3__117__compressed_pairINS_12basic_stringIcNS_11char_traitsIcEENS_9allocatorIcEEE5__repES5_E5firstB8ue170006Ev, symObjAddr: 0x3160, symBinAddr: 0x1000050D0, symSize: 0x24 }
  - { offsetInCU: 0x10484, offset: 0x10484, size: 0x8, addend: 0x0, symName: __ZNKSt3__122__compressed_pair_elemINS_12basic_stringIcNS_11char_traitsIcEENS_9allocatorIcEEE5__repELi0ELb0EE5__getB8ue170006Ev, symObjAddr: 0x3184, symBinAddr: 0x1000050F4, symSize: 0x14 }
  - { offsetInCU: 0x104A9, offset: 0x104A9, size: 0x8, addend: 0x0, symName: __ZNKSt3__112basic_stringIcNS_11char_traitsIcEENS_9allocatorIcEEE13__get_pointerB8ue170006Ev, symObjAddr: 0x31AC, symBinAddr: 0x10000511C, symSize: 0x54 }
  - { offsetInCU: 0x104CE, offset: 0x104CE, size: 0x8, addend: 0x0, symName: __ZNKSt3__112basic_stringIcNS_11char_traitsIcEENS_9allocatorIcEEE18__get_long_pointerB8ue170006Ev, symObjAddr: 0x3200, symBinAddr: 0x100005170, symSize: 0x28 }
  - { offsetInCU: 0x104F3, offset: 0x104F3, size: 0x8, addend: 0x0, symName: __ZNKSt3__112basic_stringIcNS_11char_traitsIcEENS_9allocatorIcEEE19__get_short_pointerB8ue170006Ev, symObjAddr: 0x3228, symBinAddr: 0x100005198, symSize: 0x28 }
  - { offsetInCU: 0x10518, offset: 0x10518, size: 0x8, addend: 0x0, symName: __ZNSt3__114pointer_traitsIPKcE10pointer_toB8ue170006ERS1_, symObjAddr: 0x3250, symBinAddr: 0x1000051C0, symSize: 0x14 }
  - { offsetInCU: 0x10545, offset: 0x10545, size: 0x8, addend: 0x0, symName: __ZNKSt3__110__identityclB8ue170006IRNS_12basic_stringIcNS_11char_traitsIcEENS_9allocatorIcEEEEEEOT_SA_, symObjAddr: 0x3264, symBinAddr: 0x1000051D4, symSize: 0x18 }
  - { offsetInCU: 0x10581, offset: 0x10581, size: 0x8, addend: 0x0, symName: __ZNSt3__118__unwrap_iter_implINS_11__wrap_iterIPNS_12basic_stringIcNS_11char_traitsIcEENS_9allocatorIcEEEEEELb1EE8__unwrapB8ue170006ES9_, symObjAddr: 0x327C, symBinAddr: 0x1000051EC, symSize: 0x28 }
  - { offsetInCU: 0x105A4, offset: 0x105A4, size: 0x8, addend: 0x0, symName: __ZNSt3__16vectorINS_12basic_stringIcNS_11char_traitsIcEENS_9allocatorIcEEEENS4_IS6_EEE9__end_capB8ue170006Ev, symObjAddr: 0x32A4, symBinAddr: 0x100005214, symSize: 0x28 }
  - { offsetInCU: 0x105C9, offset: 0x105C9, size: 0x8, addend: 0x0, symName: __ZNSt3__16vectorINS_12basic_stringIcNS_11char_traitsIcEENS_9allocatorIcEEEENS4_IS6_EEE22__construct_one_at_endB8ue170006IJRKS6_EEEvDpOT_, symObjAddr: 0x32CC, symBinAddr: 0x10000523C, symSize: 0x98 }
  - { offsetInCU: 0x10616, offset: 0x10616, size: 0x8, addend: 0x0, symName: __ZNSt3__16vectorINS_12basic_stringIcNS_11char_traitsIcEENS_9allocatorIcEEEENS4_IS6_EEE21__push_back_slow_pathIRKS6_EEvOT_, symObjAddr: 0x3364, symBinAddr: 0x1000052D4, symSize: 0xE0 }
  - { offsetInCU: 0x10673, offset: 0x10673, size: 0x8, addend: 0x0, symName: __ZNSt3__117__compressed_pairIPNS_12basic_stringIcNS_11char_traitsIcEENS_9allocatorIcEEEENS4_IS6_EEE5firstB8ue170006Ev, symObjAddr: 0x3444, symBinAddr: 0x1000053B4, symSize: 0x24 }
  - { offsetInCU: 0x10698, offset: 0x10698, size: 0x8, addend: 0x0, symName: __ZNSt3__122__compressed_pair_elemIPNS_12basic_stringIcNS_11char_traitsIcEENS_9allocatorIcEEEELi0ELb0EE5__getB8ue170006Ev, symObjAddr: 0x3468, symBinAddr: 0x1000053D8, symSize: 0x14 }
  - { offsetInCU: 0x106D6, offset: 0x106D6, size: 0x8, addend: 0x0, symName: __ZNSt3__16vectorINS_12basic_stringIcNS_11char_traitsIcEENS_9allocatorIcEEEENS4_IS6_EEE21_ConstructTransactionC1B8ue170006ERS8_m, symObjAddr: 0x347C, symBinAddr: 0x1000053EC, symSize: 0x3C }
  - { offsetInCU: 0x1071D, offset: 0x1071D, size: 0x8, addend: 0x0, symName: __ZNSt3__116allocator_traitsINS_9allocatorINS_12basic_stringIcNS_11char_traitsIcEENS1_IcEEEEEEE9constructB8ue170006IS6_JRKS6_EvEEvRS7_PT_DpOT0_, symObjAddr: 0x34B8, symBinAddr: 0x100005428, symSize: 0x34 }
  - { offsetInCU: 0x10774, offset: 0x10774, size: 0x8, addend: 0x0, symName: __ZNSt3__16vectorINS_12basic_stringIcNS_11char_traitsIcEENS_9allocatorIcEEEENS4_IS6_EEE21_ConstructTransactionD1B8ue170006Ev, symObjAddr: 0x34EC, symBinAddr: 0x10000545C, symSize: 0x2C }
  - { offsetInCU: 0x1079D, offset: 0x1079D, size: 0x8, addend: 0x0, symName: __ZNSt3__16vectorINS_12basic_stringIcNS_11char_traitsIcEENS_9allocatorIcEEEENS4_IS6_EEE21_ConstructTransactionC2B8ue170006ERS8_m, symObjAddr: 0x3518, symBinAddr: 0x100005488, symSize: 0x4C }
  - { offsetInCU: 0x107E4, offset: 0x107E4, size: 0x8, addend: 0x0, symName: __ZNSt3__19allocatorINS_12basic_stringIcNS_11char_traitsIcEENS0_IcEEEEE9constructB8ue170006IS5_JRKS5_EEEvPT_DpOT0_, symObjAddr: 0x3564, symBinAddr: 0x1000054D4, symSize: 0x30 }
  - { offsetInCU: 0x10839, offset: 0x10839, size: 0x8, addend: 0x0, symName: __ZNSt3__16vectorINS_12basic_stringIcNS_11char_traitsIcEENS_9allocatorIcEEEENS4_IS6_EEE21_ConstructTransactionD2B8ue170006Ev, symObjAddr: 0x3594, symBinAddr: 0x100005504, symSize: 0x20 }
  - { offsetInCU: 0x10861, offset: 0x10861, size: 0x8, addend: 0x0, symName: __ZNKSt3__16vectorINS_12basic_stringIcNS_11char_traitsIcEENS_9allocatorIcEEEENS4_IS6_EEE11__recommendB8ue170006Em, symObjAddr: 0x35B4, symBinAddr: 0x100005524, symSize: 0xB4 }
  - { offsetInCU: 0x108B5, offset: 0x108B5, size: 0x8, addend: 0x0, symName: __ZNSt3__114__split_bufferINS_12basic_stringIcNS_11char_traitsIcEENS_9allocatorIcEEEERNS4_IS6_EEEC1EmmS8_, symObjAddr: 0x3668, symBinAddr: 0x1000055D8, symSize: 0x44 }
  - { offsetInCU: 0x1090A, offset: 0x1090A, size: 0x8, addend: 0x0, symName: __ZNSt3__114__split_bufferINS_12basic_stringIcNS_11char_traitsIcEENS_9allocatorIcEEEERNS4_IS6_EEED1Ev, symObjAddr: 0x37BC, symBinAddr: 0x10000572C, symSize: 0x2C }
  - { offsetInCU: 0x10934, offset: 0x10934, size: 0x8, addend: 0x0, symName: __ZNKSt3__16vectorINS_12basic_stringIcNS_11char_traitsIcEENS_9allocatorIcEEEENS4_IS6_EEE8max_sizeEv, symObjAddr: 0x37E8, symBinAddr: 0x100005758, symSize: 0x74 }
  - { offsetInCU: 0x1095B, offset: 0x1095B, size: 0x8, addend: 0x0, symName: __ZNKSt3__16vectorINS_12basic_stringIcNS_11char_traitsIcEENS_9allocatorIcEEEENS4_IS6_EEE20__throw_length_errorB8ue170006Ev, symObjAddr: 0x385C, symBinAddr: 0x1000057CC, symSize: 0x1C }
  - { offsetInCU: 0x1098A, offset: 0x1098A, size: 0x8, addend: 0x0, symName: __ZNSt3__116allocator_traitsINS_9allocatorINS_12basic_stringIcNS_11char_traitsIcEENS1_IcEEEEEEE8max_sizeB8ue170006IS7_vEEmRKS7_, symObjAddr: 0x38D0, symBinAddr: 0x100005840, symSize: 0x24 }
  - { offsetInCU: 0x109B8, offset: 0x109B8, size: 0x8, addend: 0x0, symName: __ZNKSt3__16vectorINS_12basic_stringIcNS_11char_traitsIcEENS_9allocatorIcEEEENS4_IS6_EEE7__allocB8ue170006Ev, symObjAddr: 0x38F4, symBinAddr: 0x100005864, symSize: 0x28 }
  - { offsetInCU: 0x109DD, offset: 0x109DD, size: 0x8, addend: 0x0, symName: __ZNSt3__114numeric_limitsIlE3maxB8ue170006Ev, symObjAddr: 0x391C, symBinAddr: 0x10000588C, symSize: 0x14 }
  - { offsetInCU: 0x10A05, offset: 0x10A05, size: 0x8, addend: 0x0, symName: __ZNKSt3__16__lessIvvEclB8ue170006ImmEEbRKT_RKT0_, symObjAddr: 0x3984, symBinAddr: 0x1000058F4, symSize: 0x34 }
  - { offsetInCU: 0x10A58, offset: 0x10A58, size: 0x8, addend: 0x0, symName: __ZNKSt3__19allocatorINS_12basic_stringIcNS_11char_traitsIcEENS0_IcEEEEE8max_sizeB8ue170006Ev, symObjAddr: 0x39B8, symBinAddr: 0x100005928, symSize: 0x18 }
  - { offsetInCU: 0x10A7D, offset: 0x10A7D, size: 0x8, addend: 0x0, symName: __ZNKSt3__117__compressed_pairIPNS_12basic_stringIcNS_11char_traitsIcEENS_9allocatorIcEEEENS4_IS6_EEE6secondB8ue170006Ev, symObjAddr: 0x39D0, symBinAddr: 0x100005940, symSize: 0x24 }
  - { offsetInCU: 0x10AA2, offset: 0x10AA2, size: 0x8, addend: 0x0, symName: __ZNKSt3__122__compressed_pair_elemINS_9allocatorINS_12basic_stringIcNS_11char_traitsIcEENS1_IcEEEEEELi1ELb1EE5__getB8ue170006Ev, symObjAddr: 0x39F4, symBinAddr: 0x100005964, symSize: 0x14 }
  - { offsetInCU: 0x10AC7, offset: 0x10AC7, size: 0x8, addend: 0x0, symName: __ZNSt3__123__libcpp_numeric_limitsIlLb1EE3maxB8ue170006Ev, symObjAddr: 0x3A08, symBinAddr: 0x100005978, symSize: 0x8 }
  - { offsetInCU: 0x10ADB, offset: 0x10ADB, size: 0x8, addend: 0x0, symName: __ZNSt12length_errorC1B8ue170006EPKc, symObjAddr: 0x3A74, symBinAddr: 0x1000059E4, symSize: 0x34 }
  - { offsetInCU: 0x10B12, offset: 0x10B12, size: 0x8, addend: 0x0, symName: __ZNSt12length_errorC2B8ue170006EPKc, symObjAddr: 0x3AA8, symBinAddr: 0x100005A18, symSize: 0x4C }
  - { offsetInCU: 0x10B49, offset: 0x10B49, size: 0x8, addend: 0x0, symName: __ZNSt3__114__split_bufferINS_12basic_stringIcNS_11char_traitsIcEENS_9allocatorIcEEEERNS4_IS6_EEEC2EmmS8_, symObjAddr: 0x3B48, symBinAddr: 0x100005AB8, symSize: 0xE0 }
  - { offsetInCU: 0x10BBC, offset: 0x10BBC, size: 0x8, addend: 0x0, symName: __ZNSt3__117__compressed_pairIPNS_12basic_stringIcNS_11char_traitsIcEENS_9allocatorIcEEEERNS4_IS6_EEEC1B8ue170006IDnS9_EEOT_OT0_, symObjAddr: 0x3C28, symBinAddr: 0x100005B98, symSize: 0x3C }
  - { offsetInCU: 0x10C13, offset: 0x10C13, size: 0x8, addend: 0x0, symName: __ZNSt3__114__split_bufferINS_12basic_stringIcNS_11char_traitsIcEENS_9allocatorIcEEEERNS4_IS6_EEE7__allocB8ue170006Ev, symObjAddr: 0x3CA4, symBinAddr: 0x100005C14, symSize: 0x28 }
  - { offsetInCU: 0x10C38, offset: 0x10C38, size: 0x8, addend: 0x0, symName: __ZNSt3__114__split_bufferINS_12basic_stringIcNS_11char_traitsIcEENS_9allocatorIcEEEERNS4_IS6_EEE9__end_capB8ue170006Ev, symObjAddr: 0x3CCC, symBinAddr: 0x100005C3C, symSize: 0x28 }
  - { offsetInCU: 0x10C5D, offset: 0x10C5D, size: 0x8, addend: 0x0, symName: __ZNSt3__117__compressed_pairIPNS_12basic_stringIcNS_11char_traitsIcEENS_9allocatorIcEEEERNS4_IS6_EEEC2B8ue170006IDnS9_EEOT_OT0_, symObjAddr: 0x3CF4, symBinAddr: 0x100005C64, symSize: 0x48 }
  - { offsetInCU: 0x10CB4, offset: 0x10CB4, size: 0x8, addend: 0x0, symName: __ZNSt3__122__compressed_pair_elemIRNS_9allocatorINS_12basic_stringIcNS_11char_traitsIcEENS1_IcEEEEEELi1ELb0EEC2B8ue170006IS8_vEEOT_, symObjAddr: 0x3D3C, symBinAddr: 0x100005CAC, symSize: 0x20 }
  - { offsetInCU: 0x10CF5, offset: 0x10CF5, size: 0x8, addend: 0x0, symName: __ZNSt3__19allocatorINS_12basic_stringIcNS_11char_traitsIcEENS0_IcEEEEE8allocateB8ue170006Em, symObjAddr: 0x3D5C, symBinAddr: 0x100005CCC, symSize: 0x8C }
  - { offsetInCU: 0x10D28, offset: 0x10D28, size: 0x8, addend: 0x0, symName: __ZNSt3__117__compressed_pairIPNS_12basic_stringIcNS_11char_traitsIcEENS_9allocatorIcEEEERNS4_IS6_EEE6secondB8ue170006Ev, symObjAddr: 0x3E68, symBinAddr: 0x100005DD8, symSize: 0x28 }
  - { offsetInCU: 0x10D4D, offset: 0x10D4D, size: 0x8, addend: 0x0, symName: __ZNSt3__122__compressed_pair_elemIRNS_9allocatorINS_12basic_stringIcNS_11char_traitsIcEENS1_IcEEEEEELi1ELb0EE5__getB8ue170006Ev, symObjAddr: 0x3E90, symBinAddr: 0x100005E00, symSize: 0x18 }
  - { offsetInCU: 0x10D72, offset: 0x10D72, size: 0x8, addend: 0x0, symName: __ZNSt3__117__compressed_pairIPNS_12basic_stringIcNS_11char_traitsIcEENS_9allocatorIcEEEERNS4_IS6_EEE5firstB8ue170006Ev, symObjAddr: 0x3EA8, symBinAddr: 0x100005E18, symSize: 0x24 }
  - { offsetInCU: 0x10D97, offset: 0x10D97, size: 0x8, addend: 0x0, symName: __ZNSt3__116reverse_iteratorIPNS_12basic_stringIcNS_11char_traitsIcEENS_9allocatorIcEEEEEC1B8ue170006ES7_, symObjAddr: 0x4000, symBinAddr: 0x100005F70, symSize: 0x34 }
  - { offsetInCU: 0x10DCE, offset: 0x10DCE, size: 0x8, addend: 0x0, symName: __ZNKSt3__116reverse_iteratorIPNS_12basic_stringIcNS_11char_traitsIcEENS_9allocatorIcEEEEE4baseB8ue170006Ev, symObjAddr: 0x4034, symBinAddr: 0x100005FA4, symSize: 0x18 }
  - { offsetInCU: 0x10DF3, offset: 0x10DF3, size: 0x8, addend: 0x0, symName: __ZNKSt3__16vectorINS_12basic_stringIcNS_11char_traitsIcEENS_9allocatorIcEEEENS4_IS6_EEE14__annotate_newB8ue170006Em, symObjAddr: 0x4088, symBinAddr: 0x100005FF8, symSize: 0xC8 }
  - { offsetInCU: 0x10E27, offset: 0x10E27, size: 0x8, addend: 0x0, symName: __ZNSt3__129_AllocatorDestroyRangeReverseINS_9allocatorINS_12basic_stringIcNS_11char_traitsIcEENS1_IcEEEEEENS_16reverse_iteratorIPS6_EEEC1B8ue170006ERS7_RSA_SD_, symObjAddr: 0x419C, symBinAddr: 0x10000610C, symSize: 0x44 }
  - { offsetInCU: 0x10E7D, offset: 0x10E7D, size: 0x8, addend: 0x0, symName: __ZNKSt3__116reverse_iteratorIPNS_12basic_stringIcNS_11char_traitsIcEENS_9allocatorIcEEEEEdeB8ue170006Ev, symObjAddr: 0x424C, symBinAddr: 0x1000061BC, symSize: 0x28 }
  - { offsetInCU: 0x10EB0, offset: 0x10EB0, size: 0x8, addend: 0x0, symName: __ZNSt3__116reverse_iteratorIPNS_12basic_stringIcNS_11char_traitsIcEENS_9allocatorIcEEEEEppB8ue170006Ev, symObjAddr: 0x4274, symBinAddr: 0x1000061E4, symSize: 0x20 }
  - { offsetInCU: 0x10ED5, offset: 0x10ED5, size: 0x8, addend: 0x0, symName: __ZNSt3__128__exception_guard_exceptionsINS_29_AllocatorDestroyRangeReverseINS_9allocatorINS_12basic_stringIcNS_11char_traitsIcEENS2_IcEEEEEENS_16reverse_iteratorIPS7_EEEEE10__completeB8ue170006Ev, symObjAddr: 0x4294, symBinAddr: 0x100006204, symSize: 0x1C }
  - { offsetInCU: 0x10EFA, offset: 0x10EFA, size: 0x8, addend: 0x0, symName: __ZNSt3__128__exception_guard_exceptionsINS_29_AllocatorDestroyRangeReverseINS_9allocatorINS_12basic_stringIcNS_11char_traitsIcEENS2_IcEEEEEENS_16reverse_iteratorIPS7_EEEEED1B8ue170006Ev, symObjAddr: 0x42B0, symBinAddr: 0x100006220, symSize: 0x2C }
  - { offsetInCU: 0x10F23, offset: 0x10F23, size: 0x8, addend: 0x0, symName: __ZNSt3__128__exception_guard_exceptionsINS_29_AllocatorDestroyRangeReverseINS_9allocatorINS_12basic_stringIcNS_11char_traitsIcEENS2_IcEEEEEENS_16reverse_iteratorIPS7_EEEEEC1B8ue170006ESC_, symObjAddr: 0x42DC, symBinAddr: 0x10000624C, symSize: 0x34 }
  - { offsetInCU: 0x10F5B, offset: 0x10F5B, size: 0x8, addend: 0x0, symName: __ZNSt3__128__exception_guard_exceptionsINS_29_AllocatorDestroyRangeReverseINS_9allocatorINS_12basic_stringIcNS_11char_traitsIcEENS2_IcEEEEEENS_16reverse_iteratorIPS7_EEEEEC2B8ue170006ESC_, symObjAddr: 0x4310, symBinAddr: 0x100006280, symSize: 0x30 }
  - { offsetInCU: 0x10F93, offset: 0x10F93, size: 0x8, addend: 0x0, symName: __ZNSt3__129_AllocatorDestroyRangeReverseINS_9allocatorINS_12basic_stringIcNS_11char_traitsIcEENS1_IcEEEEEENS_16reverse_iteratorIPS6_EEEC2B8ue170006ERS7_RSA_SD_, symObjAddr: 0x4340, symBinAddr: 0x1000062B0, symSize: 0x38 }
  - { offsetInCU: 0x10FEE, offset: 0x10FEE, size: 0x8, addend: 0x0, symName: __ZNSt3__119__to_address_helperINS_16reverse_iteratorIPNS_12basic_stringIcNS_11char_traitsIcEENS_9allocatorIcEEEEEEvE6__callB8ue170006ERKS9_, symObjAddr: 0x4378, symBinAddr: 0x1000062E8, symSize: 0x4C }
  - { offsetInCU: 0x11011, offset: 0x11011, size: 0x8, addend: 0x0, symName: __ZNKSt3__116reverse_iteratorIPNS_12basic_stringIcNS_11char_traitsIcEENS_9allocatorIcEEEEEptB8ue170006Ev, symObjAddr: 0x43C4, symBinAddr: 0x100006334, symSize: 0x24 }
  - { offsetInCU: 0x11036, offset: 0x11036, size: 0x8, addend: 0x0, symName: __ZNSt3__128__exception_guard_exceptionsINS_29_AllocatorDestroyRangeReverseINS_9allocatorINS_12basic_stringIcNS_11char_traitsIcEENS2_IcEEEEEENS_16reverse_iteratorIPS7_EEEEED2B8ue170006Ev, symObjAddr: 0x43E8, symBinAddr: 0x100006358, symSize: 0x48 }
  - { offsetInCU: 0x1105F, offset: 0x1105F, size: 0x8, addend: 0x0, symName: __ZNKSt3__129_AllocatorDestroyRangeReverseINS_9allocatorINS_12basic_stringIcNS_11char_traitsIcEENS1_IcEEEEEENS_16reverse_iteratorIPS6_EEEclB8ue170006Ev, symObjAddr: 0x4430, symBinAddr: 0x1000063A0, symSize: 0xB4 }
  - { offsetInCU: 0x11085, offset: 0x11085, size: 0x8, addend: 0x0, symName: __ZNSt3__116reverse_iteratorINS0_IPNS_12basic_stringIcNS_11char_traitsIcEENS_9allocatorIcEEEEEEEC1B8ue170006ES8_, symObjAddr: 0x4554, symBinAddr: 0x1000064C4, symSize: 0x3C }
  - { offsetInCU: 0x110BC, offset: 0x110BC, size: 0x8, addend: 0x0, symName: __ZNSt3__116reverse_iteratorINS0_IPNS_12basic_stringIcNS_11char_traitsIcEENS_9allocatorIcEEEEEEEppB8ue170006Ev, symObjAddr: 0x4614, symBinAddr: 0x100006584, symSize: 0x30 }
  - { offsetInCU: 0x110E1, offset: 0x110E1, size: 0x8, addend: 0x0, symName: __ZNKSt3__116reverse_iteratorINS0_IPNS_12basic_stringIcNS_11char_traitsIcEENS_9allocatorIcEEEEEEE4baseB8ue170006Ev, symObjAddr: 0x4644, symBinAddr: 0x1000065B4, symSize: 0x24 }
  - { offsetInCU: 0x1110B, offset: 0x1110B, size: 0x8, addend: 0x0, symName: __ZNSt3__119__to_address_helperINS_16reverse_iteratorINS1_IPNS_12basic_stringIcNS_11char_traitsIcEENS_9allocatorIcEEEEEEEEvE6__callB8ue170006ERKSA_, symObjAddr: 0x4668, symBinAddr: 0x1000065D8, symSize: 0x4C }
  - { offsetInCU: 0x1112E, offset: 0x1112E, size: 0x8, addend: 0x0, symName: __ZNKSt3__116reverse_iteratorINS0_IPNS_12basic_stringIcNS_11char_traitsIcEENS_9allocatorIcEEEEEEEptB8ue170006Ev, symObjAddr: 0x46B4, symBinAddr: 0x100006624, symSize: 0x24 }
  - { offsetInCU: 0x11153, offset: 0x11153, size: 0x8, addend: 0x0, symName: __ZNKSt3__116reverse_iteratorINS0_IPNS_12basic_stringIcNS_11char_traitsIcEENS_9allocatorIcEEEEEEEdeB8ue170006Ev, symObjAddr: 0x46D8, symBinAddr: 0x100006648, symSize: 0x34 }
  - { offsetInCU: 0x11186, offset: 0x11186, size: 0x8, addend: 0x0, symName: __ZNSt3__116reverse_iteratorIPNS_12basic_stringIcNS_11char_traitsIcEENS_9allocatorIcEEEEEmmB8ue170006Ev, symObjAddr: 0x470C, symBinAddr: 0x10000667C, symSize: 0x20 }
  - { offsetInCU: 0x111AB, offset: 0x111AB, size: 0x8, addend: 0x0, symName: __ZNSt3__116reverse_iteratorINS0_IPNS_12basic_stringIcNS_11char_traitsIcEENS_9allocatorIcEEEEEEEC2B8ue170006ES8_, symObjAddr: 0x472C, symBinAddr: 0x10000669C, symSize: 0x2C }
  - { offsetInCU: 0x111E2, offset: 0x111E2, size: 0x8, addend: 0x0, symName: __ZNSt3__116reverse_iteratorIPNS_12basic_stringIcNS_11char_traitsIcEENS_9allocatorIcEEEEEC2B8ue170006ES7_, symObjAddr: 0x4758, symBinAddr: 0x1000066C8, symSize: 0x28 }
  - { offsetInCU: 0x11219, offset: 0x11219, size: 0x8, addend: 0x0, symName: __ZNSt3__114__split_bufferINS_12basic_stringIcNS_11char_traitsIcEENS_9allocatorIcEEEERNS4_IS6_EEED2Ev, symObjAddr: 0x4780, symBinAddr: 0x1000066F0, symSize: 0x80 }
  - { offsetInCU: 0x11244, offset: 0x11244, size: 0x8, addend: 0x0, symName: __ZNSt3__114__split_bufferINS_12basic_stringIcNS_11char_traitsIcEENS_9allocatorIcEEEERNS4_IS6_EEE5clearB8ue170006Ev, symObjAddr: 0x4800, symBinAddr: 0x100006770, symSize: 0x28 }
  - { offsetInCU: 0x11269, offset: 0x11269, size: 0x8, addend: 0x0, symName: __ZNKSt3__114__split_bufferINS_12basic_stringIcNS_11char_traitsIcEENS_9allocatorIcEEEERNS4_IS6_EEE8capacityB8ue170006Ev, symObjAddr: 0x4828, symBinAddr: 0x100006798, symSize: 0x40 }
  - { offsetInCU: 0x1128E, offset: 0x1128E, size: 0x8, addend: 0x0, symName: __ZNSt3__114__split_bufferINS_12basic_stringIcNS_11char_traitsIcEENS_9allocatorIcEEEERNS4_IS6_EEE17__destruct_at_endB8ue170006EPS6_, symObjAddr: 0x4868, symBinAddr: 0x1000067D8, symSize: 0x2C }
  - { offsetInCU: 0x112C0, offset: 0x112C0, size: 0x8, addend: 0x0, symName: __ZNSt3__114__split_bufferINS_12basic_stringIcNS_11char_traitsIcEENS_9allocatorIcEEEERNS4_IS6_EEE17__destruct_at_endB8ue170006EPS6_NS_17integral_constantIbLb0EEE, symObjAddr: 0x4894, symBinAddr: 0x100006804, symSize: 0x94 }
  - { offsetInCU: 0x11300, offset: 0x11300, size: 0x8, addend: 0x0, symName: __ZNKSt3__114__split_bufferINS_12basic_stringIcNS_11char_traitsIcEENS_9allocatorIcEEEERNS4_IS6_EEE9__end_capB8ue170006Ev, symObjAddr: 0x4928, symBinAddr: 0x100006898, symSize: 0x28 }
  - { offsetInCU: 0x11325, offset: 0x11325, size: 0x8, addend: 0x0, symName: __ZNKSt3__117__compressed_pairIPNS_12basic_stringIcNS_11char_traitsIcEENS_9allocatorIcEEEERNS4_IS6_EEE5firstB8ue170006Ev, symObjAddr: 0x4950, symBinAddr: 0x1000068C0, symSize: 0x24 }
  - { offsetInCU: 0x1134A, offset: 0x1134A, size: 0x8, addend: 0x0, symName: __ZNSt3__112basic_stringIcNS_11char_traitsIcEENS_9allocatorIcEEEC2B8ue170006ILi0EEEPKc, symObjAddr: 0x4974, symBinAddr: 0x1000068E4, symSize: 0x58 }
  - { offsetInCU: 0x11388, offset: 0x11388, size: 0x8, addend: 0x0, symName: __ZNSt3__117__compressed_pairINS_12basic_stringIcNS_11char_traitsIcEENS_9allocatorIcEEE5__repES5_EC1B8ue170006INS_18__default_init_tagESA_EEOT_OT0_, symObjAddr: 0x49CC, symBinAddr: 0x10000693C, symSize: 0x3C }
  - { offsetInCU: 0x113DF, offset: 0x113DF, size: 0x8, addend: 0x0, symName: __ZNSt3__111char_traitsIcE6lengthB8ue170006EPKc, symObjAddr: 0x4A08, symBinAddr: 0x100006978, symSize: 0x48 }
  - { offsetInCU: 0x11402, offset: 0x11402, size: 0x8, addend: 0x0, symName: __ZNSt3__117__compressed_pairINS_12basic_stringIcNS_11char_traitsIcEENS_9allocatorIcEEE5__repES5_EC2B8ue170006INS_18__default_init_tagESA_EEOT_OT0_, symObjAddr: 0x4A50, symBinAddr: 0x1000069C0, symSize: 0x3C }
  - { offsetInCU: 0x11459, offset: 0x11459, size: 0x8, addend: 0x0, symName: __ZNSt3__122__compressed_pair_elemINS_12basic_stringIcNS_11char_traitsIcEENS_9allocatorIcEEE5__repELi0ELb0EEC2B8ue170006ENS_18__default_init_tagE, symObjAddr: 0x4A8C, symBinAddr: 0x1000069FC, symSize: 0x14 }
  - { offsetInCU: 0x1148D, offset: 0x1148D, size: 0x8, addend: 0x0, symName: __ZNSt3__122__compressed_pair_elemINS_9allocatorIcEELi1ELb1EEC2B8ue170006ENS_18__default_init_tagE, symObjAddr: 0x4AA0, symBinAddr: 0x100006A10, symSize: 0x2C }
  - { offsetInCU: 0x114C1, offset: 0x114C1, size: 0x8, addend: 0x0, symName: __ZNSt3__19allocatorIcEC2B8ue170006Ev, symObjAddr: 0x4ACC, symBinAddr: 0x100006A3C, symSize: 0x2C }
  - { offsetInCU: 0x114EA, offset: 0x114EA, size: 0x8, addend: 0x0, symName: __ZNSt3__116__non_trivial_ifILb1ENS_9allocatorIcEEEC2B8ue170006Ev, symObjAddr: 0x4AF8, symBinAddr: 0x100006A68, symSize: 0x14 }
  - { offsetInCU: 0x11513, offset: 0x11513, size: 0x8, addend: 0x0, symName: __ZNSt3__16vectorIP4ItemNS_9allocatorIS2_EEEC2Em, symObjAddr: 0x4B30, symBinAddr: 0x100006AA0, symSize: 0xDC }
  - { offsetInCU: 0x11562, offset: 0x11562, size: 0x8, addend: 0x0, symName: __ZNSt3__117__compressed_pairIPP4ItemNS_9allocatorIS2_EEEC1B8ue170006IDnNS_18__default_init_tagEEEOT_OT0_, symObjAddr: 0x4C0C, symBinAddr: 0x100006B7C, symSize: 0x3C }
  - { offsetInCU: 0x115B9, offset: 0x115B9, size: 0x8, addend: 0x0, symName: __ZNSt3__16vectorIP4ItemNS_9allocatorIS2_EEE16__destroy_vectorC1B8ue170006ERS5_, symObjAddr: 0x4C88, symBinAddr: 0x100006BF8, symSize: 0x34 }
  - { offsetInCU: 0x115F1, offset: 0x115F1, size: 0x8, addend: 0x0, symName: __ZNSt3__16vectorIP4ItemNS_9allocatorIS2_EEE11__vallocateB8ue170006Em, symObjAddr: 0x4CBC, symBinAddr: 0x100006C2C, symSize: 0xAC }
  - { offsetInCU: 0x11633, offset: 0x11633, size: 0x8, addend: 0x0, symName: __ZNSt3__16vectorIP4ItemNS_9allocatorIS2_EEE18__construct_at_endEm, symObjAddr: 0x4D68, symBinAddr: 0x100006CD8, symSize: 0xD0 }
  - { offsetInCU: 0x116A5, offset: 0x116A5, size: 0x8, addend: 0x0, symName: __ZNSt3__128__exception_guard_exceptionsINS_6vectorIP4ItemNS_9allocatorIS3_EEE16__destroy_vectorEE10__completeB8ue170006Ev, symObjAddr: 0x4E38, symBinAddr: 0x100006DA8, symSize: 0x1C }
  - { offsetInCU: 0x116CA, offset: 0x116CA, size: 0x8, addend: 0x0, symName: __ZNSt3__128__exception_guard_exceptionsINS_6vectorIP4ItemNS_9allocatorIS3_EEE16__destroy_vectorEED1B8ue170006Ev, symObjAddr: 0x4E54, symBinAddr: 0x100006DC4, symSize: 0x2C }
  - { offsetInCU: 0x116F3, offset: 0x116F3, size: 0x8, addend: 0x0, symName: __ZNSt3__117__compressed_pairIPP4ItemNS_9allocatorIS2_EEEC2B8ue170006IDnNS_18__default_init_tagEEEOT_OT0_, symObjAddr: 0x4E80, symBinAddr: 0x100006DF0, symSize: 0x40 }
  - { offsetInCU: 0x1174A, offset: 0x1174A, size: 0x8, addend: 0x0, symName: __ZNSt3__122__compressed_pair_elemIPP4ItemLi0ELb0EEC2B8ue170006IDnvEEOT_, symObjAddr: 0x4EC0, symBinAddr: 0x100006E30, symSize: 0x1C }
  - { offsetInCU: 0x1178B, offset: 0x1178B, size: 0x8, addend: 0x0, symName: __ZNSt3__122__compressed_pair_elemINS_9allocatorIP4ItemEELi1ELb1EEC2B8ue170006ENS_18__default_init_tagE, symObjAddr: 0x4EDC, symBinAddr: 0x100006E4C, symSize: 0x2C }
  - { offsetInCU: 0x117BF, offset: 0x117BF, size: 0x8, addend: 0x0, symName: __ZNSt3__19allocatorIP4ItemEC2B8ue170006Ev, symObjAddr: 0x4F08, symBinAddr: 0x100006E78, symSize: 0x2C }
  - { offsetInCU: 0x117E8, offset: 0x117E8, size: 0x8, addend: 0x0, symName: __ZNSt3__116__non_trivial_ifILb1ENS_9allocatorIP4ItemEEEC2B8ue170006Ev, symObjAddr: 0x4F34, symBinAddr: 0x100006EA4, symSize: 0x14 }
  - { offsetInCU: 0x11811, offset: 0x11811, size: 0x8, addend: 0x0, symName: __ZNSt3__128__exception_guard_exceptionsINS_6vectorIP4ItemNS_9allocatorIS3_EEE16__destroy_vectorEEC1B8ue170006ES7_, symObjAddr: 0x4F48, symBinAddr: 0x100006EB8, symSize: 0x34 }
  - { offsetInCU: 0x11848, offset: 0x11848, size: 0x8, addend: 0x0, symName: __ZNSt3__128__exception_guard_exceptionsINS_6vectorIP4ItemNS_9allocatorIS3_EEE16__destroy_vectorEEC2B8ue170006ES7_, symObjAddr: 0x4F7C, symBinAddr: 0x100006EEC, symSize: 0x24 }
  - { offsetInCU: 0x1187F, offset: 0x1187F, size: 0x8, addend: 0x0, symName: __ZNSt3__16vectorIP4ItemNS_9allocatorIS2_EEE16__destroy_vectorC2B8ue170006ERS5_, symObjAddr: 0x4FA0, symBinAddr: 0x100006F10, symSize: 0x20 }
  - { offsetInCU: 0x118B6, offset: 0x118B6, size: 0x8, addend: 0x0, symName: __ZNKSt3__16vectorIP4ItemNS_9allocatorIS2_EEE8max_sizeEv, symObjAddr: 0x4FC0, symBinAddr: 0x100006F30, symSize: 0x74 }
  - { offsetInCU: 0x118DD, offset: 0x118DD, size: 0x8, addend: 0x0, symName: __ZNKSt3__16vectorIP4ItemNS_9allocatorIS2_EEE20__throw_length_errorB8ue170006Ev, symObjAddr: 0x5034, symBinAddr: 0x100006FA4, symSize: 0x1C }
  - { offsetInCU: 0x11902, offset: 0x11902, size: 0x8, addend: 0x0, symName: __ZNSt3__16vectorIP4ItemNS_9allocatorIS2_EEE7__allocB8ue170006Ev, symObjAddr: 0x5090, symBinAddr: 0x100007000, symSize: 0x28 }
  - { offsetInCU: 0x11927, offset: 0x11927, size: 0x8, addend: 0x0, symName: __ZNSt3__16vectorIP4ItemNS_9allocatorIS2_EEE9__end_capB8ue170006Ev, symObjAddr: 0x50B8, symBinAddr: 0x100007028, symSize: 0x28 }
  - { offsetInCU: 0x1194C, offset: 0x1194C, size: 0x8, addend: 0x0, symName: __ZNKSt3__16vectorIP4ItemNS_9allocatorIS2_EEE14__annotate_newB8ue170006Em, symObjAddr: 0x50E0, symBinAddr: 0x100007050, symSize: 0xAC }
  - { offsetInCU: 0x1198A, offset: 0x1198A, size: 0x8, addend: 0x0, symName: __ZNSt3__116allocator_traitsINS_9allocatorIP4ItemEEE8max_sizeB8ue170006IS4_vEEmRKS4_, symObjAddr: 0x518C, symBinAddr: 0x1000070FC, symSize: 0x24 }
  - { offsetInCU: 0x119B8, offset: 0x119B8, size: 0x8, addend: 0x0, symName: __ZNKSt3__16vectorIP4ItemNS_9allocatorIS2_EEE7__allocB8ue170006Ev, symObjAddr: 0x51B0, symBinAddr: 0x100007120, symSize: 0x28 }
  - { offsetInCU: 0x119DD, offset: 0x119DD, size: 0x8, addend: 0x0, symName: __ZNKSt3__19allocatorIP4ItemE8max_sizeB8ue170006Ev, symObjAddr: 0x51D8, symBinAddr: 0x100007148, symSize: 0x14 }
  - { offsetInCU: 0x11A02, offset: 0x11A02, size: 0x8, addend: 0x0, symName: __ZNKSt3__117__compressed_pairIPP4ItemNS_9allocatorIS2_EEE6secondB8ue170006Ev, symObjAddr: 0x51EC, symBinAddr: 0x10000715C, symSize: 0x24 }
  - { offsetInCU: 0x11A27, offset: 0x11A27, size: 0x8, addend: 0x0, symName: __ZNKSt3__122__compressed_pair_elemINS_9allocatorIP4ItemEELi1ELb1EE5__getB8ue170006Ev, symObjAddr: 0x5210, symBinAddr: 0x100007180, symSize: 0x14 }
  - { offsetInCU: 0x11A4C, offset: 0x11A4C, size: 0x8, addend: 0x0, symName: __ZNSt3__19allocatorIP4ItemE8allocateB8ue170006Em, symObjAddr: 0x5224, symBinAddr: 0x100007194, symSize: 0x84 }
  - { offsetInCU: 0x11A7F, offset: 0x11A7F, size: 0x8, addend: 0x0, symName: __ZNSt3__117__compressed_pairIPP4ItemNS_9allocatorIS2_EEE6secondB8ue170006Ev, symObjAddr: 0x52A8, symBinAddr: 0x100007218, symSize: 0x24 }
  - { offsetInCU: 0x11AA4, offset: 0x11AA4, size: 0x8, addend: 0x0, symName: __ZNSt3__122__compressed_pair_elemINS_9allocatorIP4ItemEELi1ELb1EE5__getB8ue170006Ev, symObjAddr: 0x52CC, symBinAddr: 0x10000723C, symSize: 0x14 }
  - { offsetInCU: 0x11AC9, offset: 0x11AC9, size: 0x8, addend: 0x0, symName: __ZNSt3__117__compressed_pairIPP4ItemNS_9allocatorIS2_EEE5firstB8ue170006Ev, symObjAddr: 0x52E0, symBinAddr: 0x100007250, symSize: 0x24 }
  - { offsetInCU: 0x11AEE, offset: 0x11AEE, size: 0x8, addend: 0x0, symName: __ZNSt3__122__compressed_pair_elemIPP4ItemLi0ELb0EE5__getB8ue170006Ev, symObjAddr: 0x5304, symBinAddr: 0x100007274, symSize: 0x14 }
  - { offsetInCU: 0x11B13, offset: 0x11B13, size: 0x8, addend: 0x0, symName: __ZNKSt3__16vectorIP4ItemNS_9allocatorIS2_EEE31__annotate_contiguous_containerB8ue170006EPKvS7_S7_S7_, symObjAddr: 0x5318, symBinAddr: 0x100007288, symSize: 0x20 }
  - { offsetInCU: 0x11B64, offset: 0x11B64, size: 0x8, addend: 0x0, symName: __ZNKSt3__16vectorIP4ItemNS_9allocatorIS2_EEE4dataB8ue170006Ev, symObjAddr: 0x5338, symBinAddr: 0x1000072A8, symSize: 0x28 }
  - { offsetInCU: 0x11B89, offset: 0x11B89, size: 0x8, addend: 0x0, symName: __ZNKSt3__16vectorIP4ItemNS_9allocatorIS2_EEE8capacityB8ue170006Ev, symObjAddr: 0x5360, symBinAddr: 0x1000072D0, symSize: 0x40 }
  - { offsetInCU: 0x11BAE, offset: 0x11BAE, size: 0x8, addend: 0x0, symName: __ZNKSt3__16vectorIP4ItemNS_9allocatorIS2_EEE9__end_capB8ue170006Ev, symObjAddr: 0x53B4, symBinAddr: 0x100007324, symSize: 0x28 }
  - { offsetInCU: 0x11BD3, offset: 0x11BD3, size: 0x8, addend: 0x0, symName: __ZNKSt3__117__compressed_pairIPP4ItemNS_9allocatorIS2_EEE5firstB8ue170006Ev, symObjAddr: 0x53DC, symBinAddr: 0x10000734C, symSize: 0x24 }
  - { offsetInCU: 0x11BF8, offset: 0x11BF8, size: 0x8, addend: 0x0, symName: __ZNKSt3__122__compressed_pair_elemIPP4ItemLi0ELb0EE5__getB8ue170006Ev, symObjAddr: 0x5400, symBinAddr: 0x100007370, symSize: 0x14 }
  - { offsetInCU: 0x11C36, offset: 0x11C36, size: 0x8, addend: 0x0, symName: __ZNSt3__16vectorIP4ItemNS_9allocatorIS2_EEE21_ConstructTransactionC1B8ue170006ERS5_m, symObjAddr: 0x5414, symBinAddr: 0x100007384, symSize: 0x3C }
  - { offsetInCU: 0x11C7D, offset: 0x11C7D, size: 0x8, addend: 0x0, symName: __ZNSt3__116allocator_traitsINS_9allocatorIP4ItemEEE9constructB8ue170006IS3_JEvEEvRS4_PT_DpOT0_, symObjAddr: 0x5450, symBinAddr: 0x1000073C0, symSize: 0x2C }
  - { offsetInCU: 0x11CBF, offset: 0x11CBF, size: 0x8, addend: 0x0, symName: __ZNSt3__16vectorIP4ItemNS_9allocatorIS2_EEE21_ConstructTransactionD1B8ue170006Ev, symObjAddr: 0x547C, symBinAddr: 0x1000073EC, symSize: 0x2C }
  - { offsetInCU: 0x11CE8, offset: 0x11CE8, size: 0x8, addend: 0x0, symName: __ZNSt3__16vectorIP4ItemNS_9allocatorIS2_EEE21_ConstructTransactionC2B8ue170006ERS5_m, symObjAddr: 0x54A8, symBinAddr: 0x100007418, symSize: 0x44 }
  - { offsetInCU: 0x11D2F, offset: 0x11D2F, size: 0x8, addend: 0x0, symName: __ZNSt3__19allocatorIP4ItemE9constructB8ue170006IS2_JEEEvPT_DpOT0_, symObjAddr: 0x54EC, symBinAddr: 0x10000745C, symSize: 0x1C }
  - { offsetInCU: 0x11D70, offset: 0x11D70, size: 0x8, addend: 0x0, symName: __ZNSt3__16vectorIP4ItemNS_9allocatorIS2_EEE21_ConstructTransactionD2B8ue170006Ev, symObjAddr: 0x5508, symBinAddr: 0x100007478, symSize: 0x20 }
  - { offsetInCU: 0x11D99, offset: 0x11D99, size: 0x8, addend: 0x0, symName: __ZNSt3__128__exception_guard_exceptionsINS_6vectorIP4ItemNS_9allocatorIS3_EEE16__destroy_vectorEED2B8ue170006Ev, symObjAddr: 0x5528, symBinAddr: 0x100007498, symSize: 0x48 }
  - { offsetInCU: 0x11DC2, offset: 0x11DC2, size: 0x8, addend: 0x0, symName: __ZNSt3__16vectorIP4ItemNS_9allocatorIS2_EEE16__destroy_vectorclB8ue170006Ev, symObjAddr: 0x5570, symBinAddr: 0x1000074E0, symSize: 0x90 }
  - { offsetInCU: 0x11DE7, offset: 0x11DE7, size: 0x8, addend: 0x0, symName: __ZNSt3__16vectorIP4ItemNS_9allocatorIS2_EEE7__clearB8ue170006Ev, symObjAddr: 0x5600, symBinAddr: 0x100007570, symSize: 0x28 }
  - { offsetInCU: 0x11E0C, offset: 0x11E0C, size: 0x8, addend: 0x0, symName: __ZNKSt3__16vectorIP4ItemNS_9allocatorIS2_EEE17__annotate_deleteB8ue170006Ev, symObjAddr: 0x5628, symBinAddr: 0x100007598, symSize: 0xB8 }
  - { offsetInCU: 0x11E31, offset: 0x11E31, size: 0x8, addend: 0x0, symName: __ZNSt3__116allocator_traitsINS_9allocatorIP4ItemEEE10deallocateB8ue170006ERS4_PS3_m, symObjAddr: 0x56E0, symBinAddr: 0x100007650, symSize: 0x34 }
  - { offsetInCU: 0x11E73, offset: 0x11E73, size: 0x8, addend: 0x0, symName: __ZNSt3__16vectorIP4ItemNS_9allocatorIS2_EEE22__base_destruct_at_endB8ue170006EPS2_, symObjAddr: 0x5714, symBinAddr: 0x100007684, symSize: 0xA0 }
  - { offsetInCU: 0x11EB6, offset: 0x11EB6, size: 0x8, addend: 0x0, symName: __ZNSt3__116allocator_traitsINS_9allocatorIP4ItemEEE7destroyB8ue170006IS3_vEEvRS4_PT_, symObjAddr: 0x57B4, symBinAddr: 0x100007724, symSize: 0x2C }
  - { offsetInCU: 0x11EF3, offset: 0x11EF3, size: 0x8, addend: 0x0, symName: __ZNSt3__19allocatorIP4ItemE7destroyB8ue170006EPS2_, symObjAddr: 0x57E0, symBinAddr: 0x100007750, symSize: 0x14 }
  - { offsetInCU: 0x11F26, offset: 0x11F26, size: 0x8, addend: 0x0, symName: __ZNSt3__19allocatorIP4ItemE10deallocateB8ue170006EPS2_m, symObjAddr: 0x57F4, symBinAddr: 0x100007764, symSize: 0x70 }
  - { offsetInCU: 0x11F67, offset: 0x11F67, size: 0x8, addend: 0x0, symName: __ZNSt3__16vectorIP4ItemNS_9allocatorIS2_EEED2B8ue170006Ev, symObjAddr: 0x5864, symBinAddr: 0x1000077D4, symSize: 0x3C }
  - { offsetInCU: 0x11F90, offset: 0x11F90, size: 0x8, addend: 0x0, symName: __ZNSt3__16vectorIP8CategoryNS_9allocatorIS2_EEEC2B8ue170006Ev, symObjAddr: 0x58A0, symBinAddr: 0x100007810, symSize: 0x44 }
  - { offsetInCU: 0x11FB9, offset: 0x11FB9, size: 0x8, addend: 0x0, symName: __ZNSt3__117__compressed_pairIPP8CategoryNS_9allocatorIS2_EEEC1B8ue170006IDnNS_18__default_init_tagEEEOT_OT0_, symObjAddr: 0x58E4, symBinAddr: 0x100007854, symSize: 0x3C }
  - { offsetInCU: 0x12010, offset: 0x12010, size: 0x8, addend: 0x0, symName: __ZNSt3__117__compressed_pairIPP8CategoryNS_9allocatorIS2_EEEC2B8ue170006IDnNS_18__default_init_tagEEEOT_OT0_, symObjAddr: 0x5920, symBinAddr: 0x100007890, symSize: 0x40 }
  - { offsetInCU: 0x12067, offset: 0x12067, size: 0x8, addend: 0x0, symName: __ZNSt3__122__compressed_pair_elemIPP8CategoryLi0ELb0EEC2B8ue170006IDnvEEOT_, symObjAddr: 0x5960, symBinAddr: 0x1000078D0, symSize: 0x1C }
  - { offsetInCU: 0x120A8, offset: 0x120A8, size: 0x8, addend: 0x0, symName: __ZNSt3__122__compressed_pair_elemINS_9allocatorIP8CategoryEELi1ELb1EEC2B8ue170006ENS_18__default_init_tagE, symObjAddr: 0x597C, symBinAddr: 0x1000078EC, symSize: 0x2C }
  - { offsetInCU: 0x120DC, offset: 0x120DC, size: 0x8, addend: 0x0, symName: __ZNSt3__19allocatorIP8CategoryEC2B8ue170006Ev, symObjAddr: 0x59A8, symBinAddr: 0x100007918, symSize: 0x2C }
  - { offsetInCU: 0x12105, offset: 0x12105, size: 0x8, addend: 0x0, symName: __ZNSt3__116__non_trivial_ifILb1ENS_9allocatorIP8CategoryEEEC2B8ue170006Ev, symObjAddr: 0x59D4, symBinAddr: 0x100007944, symSize: 0x14 }
  - { offsetInCU: 0x1212E, offset: 0x1212E, size: 0x8, addend: 0x0, symName: __ZNSt3__16vectorIP8CategoryNS_9allocatorIS2_EEED2B8ue170006Ev, symObjAddr: 0x59E8, symBinAddr: 0x100007958, symSize: 0x3C }
  - { offsetInCU: 0x12157, offset: 0x12157, size: 0x8, addend: 0x0, symName: __ZNSt3__16vectorIP8CategoryNS_9allocatorIS2_EEE16__destroy_vectorC1B8ue170006ERS5_, symObjAddr: 0x5A24, symBinAddr: 0x100007994, symSize: 0x34 }
  - { offsetInCU: 0x1218F, offset: 0x1218F, size: 0x8, addend: 0x0, symName: __ZNSt3__16vectorIP8CategoryNS_9allocatorIS2_EEE16__destroy_vectorclB8ue170006Ev, symObjAddr: 0x5A58, symBinAddr: 0x1000079C8, symSize: 0x90 }
  - { offsetInCU: 0x121B4, offset: 0x121B4, size: 0x8, addend: 0x0, symName: __ZNSt3__16vectorIP8CategoryNS_9allocatorIS2_EEE16__destroy_vectorC2B8ue170006ERS5_, symObjAddr: 0x5AE8, symBinAddr: 0x100007A58, symSize: 0x20 }
  - { offsetInCU: 0x121EC, offset: 0x121EC, size: 0x8, addend: 0x0, symName: __ZNSt3__16vectorIP8CategoryNS_9allocatorIS2_EEE7__clearB8ue170006Ev, symObjAddr: 0x5B08, symBinAddr: 0x100007A78, symSize: 0x28 }
  - { offsetInCU: 0x12211, offset: 0x12211, size: 0x8, addend: 0x0, symName: __ZNKSt3__16vectorIP8CategoryNS_9allocatorIS2_EEE17__annotate_deleteB8ue170006Ev, symObjAddr: 0x5B30, symBinAddr: 0x100007AA0, symSize: 0xB8 }
  - { offsetInCU: 0x12236, offset: 0x12236, size: 0x8, addend: 0x0, symName: __ZNSt3__116allocator_traitsINS_9allocatorIP8CategoryEEE10deallocateB8ue170006ERS4_PS3_m, symObjAddr: 0x5BE8, symBinAddr: 0x100007B58, symSize: 0x34 }
  - { offsetInCU: 0x12278, offset: 0x12278, size: 0x8, addend: 0x0, symName: __ZNSt3__16vectorIP8CategoryNS_9allocatorIS2_EEE7__allocB8ue170006Ev, symObjAddr: 0x5C1C, symBinAddr: 0x100007B8C, symSize: 0x28 }
  - { offsetInCU: 0x1229D, offset: 0x1229D, size: 0x8, addend: 0x0, symName: __ZNKSt3__16vectorIP8CategoryNS_9allocatorIS2_EEE8capacityB8ue170006Ev, symObjAddr: 0x5C44, symBinAddr: 0x100007BB4, symSize: 0x40 }
  - { offsetInCU: 0x122C2, offset: 0x122C2, size: 0x8, addend: 0x0, symName: __ZNSt3__16vectorIP8CategoryNS_9allocatorIS2_EEE22__base_destruct_at_endB8ue170006EPS2_, symObjAddr: 0x5C84, symBinAddr: 0x100007BF4, symSize: 0xA0 }
  - { offsetInCU: 0x12305, offset: 0x12305, size: 0x8, addend: 0x0, symName: __ZNSt3__116allocator_traitsINS_9allocatorIP8CategoryEEE7destroyB8ue170006IS3_vEEvRS4_PT_, symObjAddr: 0x5D24, symBinAddr: 0x100007C94, symSize: 0x2C }
  - { offsetInCU: 0x12342, offset: 0x12342, size: 0x8, addend: 0x0, symName: __ZNSt3__19allocatorIP8CategoryE7destroyB8ue170006EPS2_, symObjAddr: 0x5D64, symBinAddr: 0x100007CD4, symSize: 0x14 }
  - { offsetInCU: 0x12375, offset: 0x12375, size: 0x8, addend: 0x0, symName: __ZNKSt3__16vectorIP8CategoryNS_9allocatorIS2_EEE31__annotate_contiguous_containerB8ue170006EPKvS7_S7_S7_, symObjAddr: 0x5D78, symBinAddr: 0x100007CE8, symSize: 0x20 }
  - { offsetInCU: 0x123C6, offset: 0x123C6, size: 0x8, addend: 0x0, symName: __ZNKSt3__16vectorIP8CategoryNS_9allocatorIS2_EEE4dataB8ue170006Ev, symObjAddr: 0x5D98, symBinAddr: 0x100007D08, symSize: 0x28 }
  - { offsetInCU: 0x123EB, offset: 0x123EB, size: 0x8, addend: 0x0, symName: __ZNKSt3__16vectorIP8CategoryNS_9allocatorIS2_EEE4sizeB8ue170006Ev, symObjAddr: 0x5DC0, symBinAddr: 0x100007D30, symSize: 0x28 }
  - { offsetInCU: 0x12410, offset: 0x12410, size: 0x8, addend: 0x0, symName: __ZNSt3__19allocatorIP8CategoryE10deallocateB8ue170006EPS2_m, symObjAddr: 0x5DE8, symBinAddr: 0x100007D58, symSize: 0x70 }
  - { offsetInCU: 0x12451, offset: 0x12451, size: 0x8, addend: 0x0, symName: __ZNSt3__117__compressed_pairIPP8CategoryNS_9allocatorIS2_EEE6secondB8ue170006Ev, symObjAddr: 0x5E58, symBinAddr: 0x100007DC8, symSize: 0x24 }
  - { offsetInCU: 0x12476, offset: 0x12476, size: 0x8, addend: 0x0, symName: __ZNSt3__122__compressed_pair_elemINS_9allocatorIP8CategoryEELi1ELb1EE5__getB8ue170006Ev, symObjAddr: 0x5E7C, symBinAddr: 0x100007DEC, symSize: 0x14 }
  - { offsetInCU: 0x1249B, offset: 0x1249B, size: 0x8, addend: 0x0, symName: __ZNKSt3__16vectorIP8CategoryNS_9allocatorIS2_EEE9__end_capB8ue170006Ev, symObjAddr: 0x5E90, symBinAddr: 0x100007E00, symSize: 0x28 }
  - { offsetInCU: 0x124C0, offset: 0x124C0, size: 0x8, addend: 0x0, symName: __ZNKSt3__117__compressed_pairIPP8CategoryNS_9allocatorIS2_EEE5firstB8ue170006Ev, symObjAddr: 0x5EB8, symBinAddr: 0x100007E28, symSize: 0x24 }
  - { offsetInCU: 0x124E5, offset: 0x124E5, size: 0x8, addend: 0x0, symName: __ZNKSt3__122__compressed_pair_elemIPP8CategoryLi0ELb0EE5__getB8ue170006Ev, symObjAddr: 0x5EDC, symBinAddr: 0x100007E4C, symSize: 0x14 }
  - { offsetInCU: 0x1250A, offset: 0x1250A, size: 0x8, addend: 0x0, symName: __ZNSt3__16vectorIP4ItemNS_9allocatorIS2_EEEC2B8ue170006Ev, symObjAddr: 0x5EF0, symBinAddr: 0x100007E60, symSize: 0x44 }
  - { offsetInCU: 0x12533, offset: 0x12533, size: 0x8, addend: 0x0, symName: __ZNSt3__16vectorIP8CategoryNS_9allocatorIS2_EEE9__end_capB8ue170006Ev, symObjAddr: 0x5F34, symBinAddr: 0x100007EA4, symSize: 0x28 }
  - { offsetInCU: 0x1255D, offset: 0x1255D, size: 0x8, addend: 0x0, symName: __ZNSt3__16vectorIP8CategoryNS_9allocatorIS2_EEE22__construct_one_at_endB8ue170006IJS2_EEEvDpOT_, symObjAddr: 0x5F5C, symBinAddr: 0x100007ECC, symSize: 0x98 }
  - { offsetInCU: 0x125AA, offset: 0x125AA, size: 0x8, addend: 0x0, symName: __ZNSt3__16vectorIP8CategoryNS_9allocatorIS2_EEE21__push_back_slow_pathIS2_EEvOT_, symObjAddr: 0x5FF4, symBinAddr: 0x100007F64, symSize: 0xE0 }
  - { offsetInCU: 0x12607, offset: 0x12607, size: 0x8, addend: 0x0, symName: __ZNSt3__117__compressed_pairIPP8CategoryNS_9allocatorIS2_EEE5firstB8ue170006Ev, symObjAddr: 0x60D4, symBinAddr: 0x100008044, symSize: 0x24 }
  - { offsetInCU: 0x1262C, offset: 0x1262C, size: 0x8, addend: 0x0, symName: __ZNSt3__122__compressed_pair_elemIPP8CategoryLi0ELb0EE5__getB8ue170006Ev, symObjAddr: 0x60F8, symBinAddr: 0x100008068, symSize: 0x14 }
  - { offsetInCU: 0x1266A, offset: 0x1266A, size: 0x8, addend: 0x0, symName: __ZNSt3__16vectorIP8CategoryNS_9allocatorIS2_EEE21_ConstructTransactionC1B8ue170006ERS5_m, symObjAddr: 0x610C, symBinAddr: 0x10000807C, symSize: 0x3C }
  - { offsetInCU: 0x126B1, offset: 0x126B1, size: 0x8, addend: 0x0, symName: __ZNSt3__116allocator_traitsINS_9allocatorIP8CategoryEEE9constructB8ue170006IS3_JS3_EvEEvRS4_PT_DpOT0_, symObjAddr: 0x6148, symBinAddr: 0x1000080B8, symSize: 0x34 }
  - { offsetInCU: 0x12708, offset: 0x12708, size: 0x8, addend: 0x0, symName: __ZNSt3__16vectorIP8CategoryNS_9allocatorIS2_EEE21_ConstructTransactionD1B8ue170006Ev, symObjAddr: 0x617C, symBinAddr: 0x1000080EC, symSize: 0x2C }
  - { offsetInCU: 0x12731, offset: 0x12731, size: 0x8, addend: 0x0, symName: __ZNSt3__16vectorIP8CategoryNS_9allocatorIS2_EEE21_ConstructTransactionC2B8ue170006ERS5_m, symObjAddr: 0x61A8, symBinAddr: 0x100008118, symSize: 0x44 }
  - { offsetInCU: 0x12778, offset: 0x12778, size: 0x8, addend: 0x0, symName: __ZNSt3__19allocatorIP8CategoryE9constructB8ue170006IS2_JS2_EEEvPT_DpOT0_, symObjAddr: 0x61EC, symBinAddr: 0x10000815C, symSize: 0x28 }
  - { offsetInCU: 0x127CD, offset: 0x127CD, size: 0x8, addend: 0x0, symName: __ZNSt3__16vectorIP8CategoryNS_9allocatorIS2_EEE21_ConstructTransactionD2B8ue170006Ev, symObjAddr: 0x6214, symBinAddr: 0x100008184, symSize: 0x20 }
  - { offsetInCU: 0x127F5, offset: 0x127F5, size: 0x8, addend: 0x0, symName: __ZNKSt3__16vectorIP8CategoryNS_9allocatorIS2_EEE11__recommendB8ue170006Em, symObjAddr: 0x6234, symBinAddr: 0x1000081A4, symSize: 0xB4 }
  - { offsetInCU: 0x12849, offset: 0x12849, size: 0x8, addend: 0x0, symName: __ZNSt3__114__split_bufferIP8CategoryRNS_9allocatorIS2_EEEC1EmmS5_, symObjAddr: 0x62E8, symBinAddr: 0x100008258, symSize: 0x44 }
  - { offsetInCU: 0x1289E, offset: 0x1289E, size: 0x8, addend: 0x0, symName: __ZNSt3__114__split_bufferIP8CategoryRNS_9allocatorIS2_EEED1Ev, symObjAddr: 0x643C, symBinAddr: 0x1000083AC, symSize: 0x2C }
  - { offsetInCU: 0x128C8, offset: 0x128C8, size: 0x8, addend: 0x0, symName: __ZNKSt3__16vectorIP8CategoryNS_9allocatorIS2_EEE8max_sizeEv, symObjAddr: 0x6468, symBinAddr: 0x1000083D8, symSize: 0x74 }
  - { offsetInCU: 0x128EF, offset: 0x128EF, size: 0x8, addend: 0x0, symName: __ZNKSt3__16vectorIP8CategoryNS_9allocatorIS2_EEE20__throw_length_errorB8ue170006Ev, symObjAddr: 0x64DC, symBinAddr: 0x10000844C, symSize: 0x1C }
  - { offsetInCU: 0x1291E, offset: 0x1291E, size: 0x8, addend: 0x0, symName: __ZNSt3__116allocator_traitsINS_9allocatorIP8CategoryEEE8max_sizeB8ue170006IS4_vEEmRKS4_, symObjAddr: 0x64F8, symBinAddr: 0x100008468, symSize: 0x24 }
  - { offsetInCU: 0x1294C, offset: 0x1294C, size: 0x8, addend: 0x0, symName: __ZNKSt3__16vectorIP8CategoryNS_9allocatorIS2_EEE7__allocB8ue170006Ev, symObjAddr: 0x651C, symBinAddr: 0x10000848C, symSize: 0x28 }
  - { offsetInCU: 0x12971, offset: 0x12971, size: 0x8, addend: 0x0, symName: __ZNKSt3__19allocatorIP8CategoryE8max_sizeB8ue170006Ev, symObjAddr: 0x6544, symBinAddr: 0x1000084B4, symSize: 0x14 }
  - { offsetInCU: 0x12996, offset: 0x12996, size: 0x8, addend: 0x0, symName: __ZNKSt3__117__compressed_pairIPP8CategoryNS_9allocatorIS2_EEE6secondB8ue170006Ev, symObjAddr: 0x6558, symBinAddr: 0x1000084C8, symSize: 0x24 }
  - { offsetInCU: 0x129BB, offset: 0x129BB, size: 0x8, addend: 0x0, symName: __ZNKSt3__122__compressed_pair_elemINS_9allocatorIP8CategoryEELi1ELb1EE5__getB8ue170006Ev, symObjAddr: 0x657C, symBinAddr: 0x1000084EC, symSize: 0x14 }
  - { offsetInCU: 0x129E0, offset: 0x129E0, size: 0x8, addend: 0x0, symName: __ZNSt3__114__split_bufferIP8CategoryRNS_9allocatorIS2_EEEC2EmmS5_, symObjAddr: 0x6590, symBinAddr: 0x100008500, symSize: 0xD4 }
  - { offsetInCU: 0x12A53, offset: 0x12A53, size: 0x8, addend: 0x0, symName: __ZNSt3__117__compressed_pairIPP8CategoryRNS_9allocatorIS2_EEEC1B8ue170006IDnS6_EEOT_OT0_, symObjAddr: 0x6664, symBinAddr: 0x1000085D4, symSize: 0x3C }
  - { offsetInCU: 0x12AAA, offset: 0x12AAA, size: 0x8, addend: 0x0, symName: __ZNSt3__114__split_bufferIP8CategoryRNS_9allocatorIS2_EEE7__allocB8ue170006Ev, symObjAddr: 0x66E0, symBinAddr: 0x100008650, symSize: 0x28 }
  - { offsetInCU: 0x12ACF, offset: 0x12ACF, size: 0x8, addend: 0x0, symName: __ZNSt3__114__split_bufferIP8CategoryRNS_9allocatorIS2_EEE9__end_capB8ue170006Ev, symObjAddr: 0x6708, symBinAddr: 0x100008678, symSize: 0x28 }
  - { offsetInCU: 0x12AF4, offset: 0x12AF4, size: 0x8, addend: 0x0, symName: __ZNSt3__117__compressed_pairIPP8CategoryRNS_9allocatorIS2_EEEC2B8ue170006IDnS6_EEOT_OT0_, symObjAddr: 0x6730, symBinAddr: 0x1000086A0, symSize: 0x48 }
  - { offsetInCU: 0x12B4B, offset: 0x12B4B, size: 0x8, addend: 0x0, symName: __ZNSt3__122__compressed_pair_elemIRNS_9allocatorIP8CategoryEELi1ELb0EEC2B8ue170006IS5_vEEOT_, symObjAddr: 0x6778, symBinAddr: 0x1000086E8, symSize: 0x20 }
  - { offsetInCU: 0x12B8C, offset: 0x12B8C, size: 0x8, addend: 0x0, symName: __ZNSt3__19allocatorIP8CategoryE8allocateB8ue170006Em, symObjAddr: 0x6798, symBinAddr: 0x100008708, symSize: 0x84 }
  - { offsetInCU: 0x12BBF, offset: 0x12BBF, size: 0x8, addend: 0x0, symName: __ZNSt3__117__compressed_pairIPP8CategoryRNS_9allocatorIS2_EEE6secondB8ue170006Ev, symObjAddr: 0x681C, symBinAddr: 0x10000878C, symSize: 0x28 }
  - { offsetInCU: 0x12BE4, offset: 0x12BE4, size: 0x8, addend: 0x0, symName: __ZNSt3__122__compressed_pair_elemIRNS_9allocatorIP8CategoryEELi1ELb0EE5__getB8ue170006Ev, symObjAddr: 0x6844, symBinAddr: 0x1000087B4, symSize: 0x18 }
  - { offsetInCU: 0x12C09, offset: 0x12C09, size: 0x8, addend: 0x0, symName: __ZNSt3__117__compressed_pairIPP8CategoryRNS_9allocatorIS2_EEE5firstB8ue170006Ev, symObjAddr: 0x685C, symBinAddr: 0x1000087CC, symSize: 0x24 }
  - { offsetInCU: 0x12C2E, offset: 0x12C2E, size: 0x8, addend: 0x0, symName: __ZNSt3__116reverse_iteratorIPP8CategoryEC1B8ue170006ES3_, symObjAddr: 0x6968, symBinAddr: 0x1000088D8, symSize: 0x34 }
  - { offsetInCU: 0x12C65, offset: 0x12C65, size: 0x8, addend: 0x0, symName: __ZNKSt3__116reverse_iteratorIPP8CategoryE4baseB8ue170006Ev, symObjAddr: 0x699C, symBinAddr: 0x10000890C, symSize: 0x18 }
  - { offsetInCU: 0x12C8A, offset: 0x12C8A, size: 0x8, addend: 0x0, symName: __ZNKSt3__16vectorIP8CategoryNS_9allocatorIS2_EEE14__annotate_newB8ue170006Em, symObjAddr: 0x69F0, symBinAddr: 0x100008960, symSize: 0xAC }
  - { offsetInCU: 0x12CBE, offset: 0x12CBE, size: 0x8, addend: 0x0, symName: __ZNKSt3__116reverse_iteratorIPP8CategoryEdeB8ue170006Ev, symObjAddr: 0x6B34, symBinAddr: 0x100008AA4, symSize: 0x28 }
  - { offsetInCU: 0x12CF1, offset: 0x12CF1, size: 0x8, addend: 0x0, symName: __ZNSt3__116reverse_iteratorIPP8CategoryEppB8ue170006Ev, symObjAddr: 0x6B5C, symBinAddr: 0x100008ACC, symSize: 0x20 }
  - { offsetInCU: 0x12D1B, offset: 0x12D1B, size: 0x8, addend: 0x0, symName: __ZNSt3__119__to_address_helperINS_16reverse_iteratorIPP8CategoryEEvE6__callB8ue170006ERKS5_, symObjAddr: 0x6BF4, symBinAddr: 0x100008B64, symSize: 0x4C }
  - { offsetInCU: 0x12D3E, offset: 0x12D3E, size: 0x8, addend: 0x0, symName: __ZNKSt3__116reverse_iteratorIPP8CategoryEptB8ue170006Ev, symObjAddr: 0x6C40, symBinAddr: 0x100008BB0, symSize: 0x24 }
  - { offsetInCU: 0x12D86, offset: 0x12D86, size: 0x8, addend: 0x0, symName: __ZNKSt3__111__move_loopINS_17_ClassicAlgPolicyEEclB8ue170006INS_16reverse_iteratorIPP8CategoryEES8_S8_EENS_4pairIT_T1_EESA_T0_SB_, symObjAddr: 0x6EDC, symBinAddr: 0x100008E4C, symSize: 0xA0 }
  - { offsetInCU: 0x12DF0, offset: 0x12DF0, size: 0x8, addend: 0x0, symName: __ZNSt3__18_IterOpsINS_17_ClassicAlgPolicyEE11__iter_moveB8ue170006IRNS_16reverse_iteratorIPP8CategoryEEEENS_9enable_ifIXsr12is_referenceIDTdeclsr3stdE7declvalIRT_EEEEE5valueEDTclsr3stdE4movedeclsr3stdE7declvalISC_EEEEE4typeEOSB_, symObjAddr: 0x70DC, symBinAddr: 0x10000904C, symSize: 0x28 }
  - { offsetInCU: 0x12E1C, offset: 0x12E1C, size: 0x8, addend: 0x0, symName: __ZNSt3__18_IterOpsINS_17_ClassicAlgPolicyEE25__validate_iter_referenceB8ue170006IRNS_16reverse_iteratorIPP8CategoryEEEEvv, symObjAddr: 0x7104, symBinAddr: 0x100009074, symSize: 0x4 }
  - { offsetInCU: 0x12E3A, offset: 0x12E3A, size: 0x8, addend: 0x0, symName: __ZNSt3__118__unwrap_iter_implINS_16reverse_iteratorIPP8CategoryEELb0EE8__unwrapB8ue170006ES5_, symObjAddr: 0x7108, symBinAddr: 0x100009078, symSize: 0x24 }
  - { offsetInCU: 0x12E5D, offset: 0x12E5D, size: 0x8, addend: 0x0, symName: __ZNSt3__14pairINS_16reverse_iteratorIPP8CategoryEES5_EC1B8ue170006ERKS5_S8_, symObjAddr: 0x712C, symBinAddr: 0x10000909C, symSize: 0x3C }
  - { offsetInCU: 0x12EA2, offset: 0x12EA2, size: 0x8, addend: 0x0, symName: __ZNSt3__14pairINS_16reverse_iteratorIPP8CategoryEES5_EC2B8ue170006ERKS5_S8_, symObjAddr: 0x7168, symBinAddr: 0x1000090D8, symSize: 0x34 }
  - { offsetInCU: 0x12EE7, offset: 0x12EE7, size: 0x8, addend: 0x0, symName: __ZNSt3__118__unwrap_iter_implINS_16reverse_iteratorIPP8CategoryEELb0EE8__rewrapB8ue170006ES5_S5_, symObjAddr: 0x719C, symBinAddr: 0x10000910C, symSize: 0x2C }
  - { offsetInCU: 0x12F15, offset: 0x12F15, size: 0x8, addend: 0x0, symName: __ZNSt3__116reverse_iteratorIPP8CategoryEC2B8ue170006ES3_, symObjAddr: 0x71C8, symBinAddr: 0x100009138, symSize: 0x28 }
  - { offsetInCU: 0x12F4C, offset: 0x12F4C, size: 0x8, addend: 0x0, symName: __ZNSt3__114__split_bufferIP8CategoryRNS_9allocatorIS2_EEED2Ev, symObjAddr: 0x71F0, symBinAddr: 0x100009160, symSize: 0x80 }
  - { offsetInCU: 0x12F77, offset: 0x12F77, size: 0x8, addend: 0x0, symName: __ZNSt3__114__split_bufferIP8CategoryRNS_9allocatorIS2_EEE5clearB8ue170006Ev, symObjAddr: 0x7270, symBinAddr: 0x1000091E0, symSize: 0x28 }
  - { offsetInCU: 0x12F9C, offset: 0x12F9C, size: 0x8, addend: 0x0, symName: __ZNKSt3__114__split_bufferIP8CategoryRNS_9allocatorIS2_EEE8capacityB8ue170006Ev, symObjAddr: 0x7298, symBinAddr: 0x100009208, symSize: 0x40 }
  - { offsetInCU: 0x12FC1, offset: 0x12FC1, size: 0x8, addend: 0x0, symName: __ZNSt3__114__split_bufferIP8CategoryRNS_9allocatorIS2_EEE17__destruct_at_endB8ue170006EPS2_, symObjAddr: 0x72D8, symBinAddr: 0x100009248, symSize: 0x2C }
  - { offsetInCU: 0x12FF3, offset: 0x12FF3, size: 0x8, addend: 0x0, symName: __ZNSt3__114__split_bufferIP8CategoryRNS_9allocatorIS2_EEE17__destruct_at_endB8ue170006EPS2_NS_17integral_constantIbLb0EEE, symObjAddr: 0x7304, symBinAddr: 0x100009274, symSize: 0x94 }
  - { offsetInCU: 0x13033, offset: 0x13033, size: 0x8, addend: 0x0, symName: __ZNKSt3__114__split_bufferIP8CategoryRNS_9allocatorIS2_EEE9__end_capB8ue170006Ev, symObjAddr: 0x7398, symBinAddr: 0x100009308, symSize: 0x28 }
  - { offsetInCU: 0x13058, offset: 0x13058, size: 0x8, addend: 0x0, symName: __ZNKSt3__117__compressed_pairIPP8CategoryRNS_9allocatorIS2_EEE5firstB8ue170006Ev, symObjAddr: 0x73C0, symBinAddr: 0x100009330, symSize: 0x24 }
  - { offsetInCU: 0x13082, offset: 0x13082, size: 0x8, addend: 0x0, symName: __ZNSt3__16vectorIP4ItemNS_9allocatorIS2_EEE22__construct_one_at_endB8ue170006IJS2_EEEvDpOT_, symObjAddr: 0x73E4, symBinAddr: 0x100009354, symSize: 0x98 }
  - { offsetInCU: 0x130CF, offset: 0x130CF, size: 0x8, addend: 0x0, symName: __ZNSt3__16vectorIP4ItemNS_9allocatorIS2_EEE21__push_back_slow_pathIS2_EEvOT_, symObjAddr: 0x747C, symBinAddr: 0x1000093EC, symSize: 0xE0 }
  - { offsetInCU: 0x1312C, offset: 0x1312C, size: 0x8, addend: 0x0, symName: __ZNSt3__116allocator_traitsINS_9allocatorIP4ItemEEE9constructB8ue170006IS3_JS3_EvEEvRS4_PT_DpOT0_, symObjAddr: 0x755C, symBinAddr: 0x1000094CC, symSize: 0x34 }
  - { offsetInCU: 0x13183, offset: 0x13183, size: 0x8, addend: 0x0, symName: __ZNSt3__19allocatorIP4ItemE9constructB8ue170006IS2_JS2_EEEvPT_DpOT0_, symObjAddr: 0x7590, symBinAddr: 0x100009500, symSize: 0x28 }
  - { offsetInCU: 0x131D7, offset: 0x131D7, size: 0x8, addend: 0x0, symName: __ZNKSt3__16vectorIP4ItemNS_9allocatorIS2_EEE11__recommendB8ue170006Em, symObjAddr: 0x75B8, symBinAddr: 0x100009528, symSize: 0xB4 }
  - { offsetInCU: 0x1322B, offset: 0x1322B, size: 0x8, addend: 0x0, symName: __ZNSt3__114__split_bufferIP4ItemRNS_9allocatorIS2_EEEC1EmmS5_, symObjAddr: 0x766C, symBinAddr: 0x1000095DC, symSize: 0x44 }
  - { offsetInCU: 0x13280, offset: 0x13280, size: 0x8, addend: 0x0, symName: __ZNSt3__114__split_bufferIP4ItemRNS_9allocatorIS2_EEED1Ev, symObjAddr: 0x77C0, symBinAddr: 0x100009730, symSize: 0x2C }
  - { offsetInCU: 0x132AB, offset: 0x132AB, size: 0x8, addend: 0x0, symName: __ZNSt3__114__split_bufferIP4ItemRNS_9allocatorIS2_EEEC2EmmS5_, symObjAddr: 0x77EC, symBinAddr: 0x10000975C, symSize: 0xD4 }
  - { offsetInCU: 0x1331E, offset: 0x1331E, size: 0x8, addend: 0x0, symName: __ZNSt3__117__compressed_pairIPP4ItemRNS_9allocatorIS2_EEEC1B8ue170006IDnS6_EEOT_OT0_, symObjAddr: 0x78C0, symBinAddr: 0x100009830, symSize: 0x3C }
  - { offsetInCU: 0x13375, offset: 0x13375, size: 0x8, addend: 0x0, symName: __ZNSt3__114__split_bufferIP4ItemRNS_9allocatorIS2_EEE7__allocB8ue170006Ev, symObjAddr: 0x78FC, symBinAddr: 0x10000986C, symSize: 0x28 }
  - { offsetInCU: 0x1339A, offset: 0x1339A, size: 0x8, addend: 0x0, symName: __ZNSt3__114__split_bufferIP4ItemRNS_9allocatorIS2_EEE9__end_capB8ue170006Ev, symObjAddr: 0x7924, symBinAddr: 0x100009894, symSize: 0x28 }
  - { offsetInCU: 0x133BF, offset: 0x133BF, size: 0x8, addend: 0x0, symName: __ZNSt3__117__compressed_pairIPP4ItemRNS_9allocatorIS2_EEEC2B8ue170006IDnS6_EEOT_OT0_, symObjAddr: 0x794C, symBinAddr: 0x1000098BC, symSize: 0x48 }
  - { offsetInCU: 0x13416, offset: 0x13416, size: 0x8, addend: 0x0, symName: __ZNSt3__122__compressed_pair_elemIRNS_9allocatorIP4ItemEELi1ELb0EEC2B8ue170006IS5_vEEOT_, symObjAddr: 0x7994, symBinAddr: 0x100009904, symSize: 0x20 }
  - { offsetInCU: 0x13457, offset: 0x13457, size: 0x8, addend: 0x0, symName: __ZNSt3__117__compressed_pairIPP4ItemRNS_9allocatorIS2_EEE6secondB8ue170006Ev, symObjAddr: 0x79B4, symBinAddr: 0x100009924, symSize: 0x28 }
  - { offsetInCU: 0x1347C, offset: 0x1347C, size: 0x8, addend: 0x0, symName: __ZNSt3__122__compressed_pair_elemIRNS_9allocatorIP4ItemEELi1ELb0EE5__getB8ue170006Ev, symObjAddr: 0x79DC, symBinAddr: 0x10000994C, symSize: 0x18 }
  - { offsetInCU: 0x134A1, offset: 0x134A1, size: 0x8, addend: 0x0, symName: __ZNSt3__117__compressed_pairIPP4ItemRNS_9allocatorIS2_EEE5firstB8ue170006Ev, symObjAddr: 0x79F4, symBinAddr: 0x100009964, symSize: 0x24 }
  - { offsetInCU: 0x134C6, offset: 0x134C6, size: 0x8, addend: 0x0, symName: __ZNSt3__116reverse_iteratorIPP4ItemEC1B8ue170006ES3_, symObjAddr: 0x7B00, symBinAddr: 0x100009A70, symSize: 0x34 }
  - { offsetInCU: 0x134FD, offset: 0x134FD, size: 0x8, addend: 0x0, symName: __ZNKSt3__116reverse_iteratorIPP4ItemE4baseB8ue170006Ev, symObjAddr: 0x7B34, symBinAddr: 0x100009AA4, symSize: 0x18 }
  - { offsetInCU: 0x13522, offset: 0x13522, size: 0x8, addend: 0x0, symName: __ZNKSt3__116reverse_iteratorIPP4ItemEdeB8ue170006Ev, symObjAddr: 0x7C20, symBinAddr: 0x100009B90, symSize: 0x28 }
  - { offsetInCU: 0x13555, offset: 0x13555, size: 0x8, addend: 0x0, symName: __ZNSt3__116reverse_iteratorIPP4ItemEppB8ue170006Ev, symObjAddr: 0x7C48, symBinAddr: 0x100009BB8, symSize: 0x20 }
  - { offsetInCU: 0x1357F, offset: 0x1357F, size: 0x8, addend: 0x0, symName: __ZNSt3__119__to_address_helperINS_16reverse_iteratorIPP4ItemEEvE6__callB8ue170006ERKS5_, symObjAddr: 0x7CE0, symBinAddr: 0x100009C50, symSize: 0x4C }
  - { offsetInCU: 0x135A2, offset: 0x135A2, size: 0x8, addend: 0x0, symName: __ZNKSt3__116reverse_iteratorIPP4ItemEptB8ue170006Ev, symObjAddr: 0x7D2C, symBinAddr: 0x100009C9C, symSize: 0x24 }
  - { offsetInCU: 0x135E0, offset: 0x135E0, size: 0x8, addend: 0x0, symName: __ZNKSt3__111__move_loopINS_17_ClassicAlgPolicyEEclB8ue170006INS_16reverse_iteratorIPP4ItemEES8_S8_EENS_4pairIT_T1_EESA_T0_SB_, symObjAddr: 0x7FC8, symBinAddr: 0x100009F38, symSize: 0xA0 }
  - { offsetInCU: 0x1364A, offset: 0x1364A, size: 0x8, addend: 0x0, symName: __ZNSt3__18_IterOpsINS_17_ClassicAlgPolicyEE11__iter_moveB8ue170006IRNS_16reverse_iteratorIPP4ItemEEEENS_9enable_ifIXsr12is_referenceIDTdeclsr3stdE7declvalIRT_EEEEE5valueEDTclsr3stdE4movedeclsr3stdE7declvalISC_EEEEE4typeEOSB_, symObjAddr: 0x81C8, symBinAddr: 0x10000A138, symSize: 0x28 }
  - { offsetInCU: 0x13676, offset: 0x13676, size: 0x8, addend: 0x0, symName: __ZNSt3__18_IterOpsINS_17_ClassicAlgPolicyEE25__validate_iter_referenceB8ue170006IRNS_16reverse_iteratorIPP4ItemEEEEvv, symObjAddr: 0x81F0, symBinAddr: 0x10000A160, symSize: 0x4 }
  - { offsetInCU: 0x13694, offset: 0x13694, size: 0x8, addend: 0x0, symName: __ZNSt3__118__unwrap_iter_implINS_16reverse_iteratorIPP4ItemEELb0EE8__unwrapB8ue170006ES5_, symObjAddr: 0x81F4, symBinAddr: 0x10000A164, symSize: 0x24 }
  - { offsetInCU: 0x136B7, offset: 0x136B7, size: 0x8, addend: 0x0, symName: __ZNSt3__14pairINS_16reverse_iteratorIPP4ItemEES5_EC1B8ue170006ERKS5_S8_, symObjAddr: 0x8218, symBinAddr: 0x10000A188, symSize: 0x3C }
  - { offsetInCU: 0x136FC, offset: 0x136FC, size: 0x8, addend: 0x0, symName: __ZNSt3__14pairINS_16reverse_iteratorIPP4ItemEES5_EC2B8ue170006ERKS5_S8_, symObjAddr: 0x8254, symBinAddr: 0x10000A1C4, symSize: 0x34 }
  - { offsetInCU: 0x13741, offset: 0x13741, size: 0x8, addend: 0x0, symName: __ZNSt3__118__unwrap_iter_implINS_16reverse_iteratorIPP4ItemEELb0EE8__rewrapB8ue170006ES5_S5_, symObjAddr: 0x8288, symBinAddr: 0x10000A1F8, symSize: 0x2C }
  - { offsetInCU: 0x1376F, offset: 0x1376F, size: 0x8, addend: 0x0, symName: __ZNSt3__116reverse_iteratorIPP4ItemEC2B8ue170006ES3_, symObjAddr: 0x82B4, symBinAddr: 0x10000A224, symSize: 0x28 }
  - { offsetInCU: 0x137A6, offset: 0x137A6, size: 0x8, addend: 0x0, symName: __ZNSt3__114__split_bufferIP4ItemRNS_9allocatorIS2_EEED2Ev, symObjAddr: 0x82DC, symBinAddr: 0x10000A24C, symSize: 0x80 }
  - { offsetInCU: 0x137D1, offset: 0x137D1, size: 0x8, addend: 0x0, symName: __ZNSt3__114__split_bufferIP4ItemRNS_9allocatorIS2_EEE5clearB8ue170006Ev, symObjAddr: 0x835C, symBinAddr: 0x10000A2CC, symSize: 0x28 }
  - { offsetInCU: 0x137F6, offset: 0x137F6, size: 0x8, addend: 0x0, symName: __ZNKSt3__114__split_bufferIP4ItemRNS_9allocatorIS2_EEE8capacityB8ue170006Ev, symObjAddr: 0x8384, symBinAddr: 0x10000A2F4, symSize: 0x40 }
  - { offsetInCU: 0x1381B, offset: 0x1381B, size: 0x8, addend: 0x0, symName: __ZNSt3__114__split_bufferIP4ItemRNS_9allocatorIS2_EEE17__destruct_at_endB8ue170006EPS2_, symObjAddr: 0x83C4, symBinAddr: 0x10000A334, symSize: 0x2C }
  - { offsetInCU: 0x1384D, offset: 0x1384D, size: 0x8, addend: 0x0, symName: __ZNSt3__114__split_bufferIP4ItemRNS_9allocatorIS2_EEE17__destruct_at_endB8ue170006EPS2_NS_17integral_constantIbLb0EEE, symObjAddr: 0x83F0, symBinAddr: 0x10000A360, symSize: 0x94 }
  - { offsetInCU: 0x1388D, offset: 0x1388D, size: 0x8, addend: 0x0, symName: __ZNKSt3__114__split_bufferIP4ItemRNS_9allocatorIS2_EEE9__end_capB8ue170006Ev, symObjAddr: 0x8484, symBinAddr: 0x10000A3F4, symSize: 0x28 }
  - { offsetInCU: 0x138B2, offset: 0x138B2, size: 0x8, addend: 0x0, symName: __ZNKSt3__117__compressed_pairIPP4ItemRNS_9allocatorIS2_EEE5firstB8ue170006Ev, symObjAddr: 0x84AC, symBinAddr: 0x10000A41C, symSize: 0x24 }
  - { offsetInCU: 0x138F5, offset: 0x138F5, size: 0x8, addend: 0x0, symName: __ZNKSt3__113basic_ostreamIcNS_11char_traitsIcEEE6sentrycvbB8ue170006Ev, symObjAddr: 0x86C4, symBinAddr: 0x10000A634, symSize: 0x1C }
  - { offsetInCU: 0x1391A, offset: 0x1391A, size: 0x8, addend: 0x0, symName: __ZNSt3__119ostreambuf_iteratorIcNS_11char_traitsIcEEEC1B8ue170006ERNS_13basic_ostreamIcS2_EE, symObjAddr: 0x8928, symBinAddr: 0x10000A898, symSize: 0x34 }
  - { offsetInCU: 0x13951, offset: 0x13951, size: 0x8, addend: 0x0, symName: __ZNKSt3__18ios_base5flagsB8ue170006Ev, symObjAddr: 0x895C, symBinAddr: 0x10000A8CC, symSize: 0x18 }
  - { offsetInCU: 0x13977, offset: 0x13977, size: 0x8, addend: 0x0, symName: __ZNKSt3__19basic_iosIcNS_11char_traitsIcEEE4fillB8ue170006Ev, symObjAddr: 0x8974, symBinAddr: 0x10000A8E4, symSize: 0x64 }
  - { offsetInCU: 0x1399E, offset: 0x1399E, size: 0x8, addend: 0x0, symName: __ZNKSt3__119ostreambuf_iteratorIcNS_11char_traitsIcEEE6failedB8ue170006Ev, symObjAddr: 0x89D8, symBinAddr: 0x10000A948, symSize: 0x24 }
  - { offsetInCU: 0x139C3, offset: 0x139C3, size: 0x8, addend: 0x0, symName: __ZNSt3__19basic_iosIcNS_11char_traitsIcEEE8setstateB8ue170006Ej, symObjAddr: 0x89FC, symBinAddr: 0x10000A96C, symSize: 0x2C }
  - { offsetInCU: 0x139F7, offset: 0x139F7, size: 0x8, addend: 0x0, symName: __ZNKSt3__18ios_base5widthB8ue170006Ev, symObjAddr: 0x8A28, symBinAddr: 0x10000A998, symSize: 0x18 }
  - { offsetInCU: 0x13A1E, offset: 0x13A1E, size: 0x8, addend: 0x0, symName: __ZNSt3__115basic_streambufIcNS_11char_traitsIcEEE5sputnB8ue170006EPKcl, symObjAddr: 0x8A40, symBinAddr: 0x10000A9B0, symSize: 0x3C }
  - { offsetInCU: 0x13A5F, offset: 0x13A5F, size: 0x8, addend: 0x0, symName: __ZNSt3__112basic_stringIcNS_11char_traitsIcEENS_9allocatorIcEEEC1B8ue170006Emc, symObjAddr: 0x8A7C, symBinAddr: 0x10000A9EC, symSize: 0x3C }
  - { offsetInCU: 0x13AA6, offset: 0x13AA6, size: 0x8, addend: 0x0, symName: __ZNSt3__18ios_base5widthB8ue170006El, symObjAddr: 0x8AB8, symBinAddr: 0x10000AA28, symSize: 0x2C }
  - { offsetInCU: 0x13AEB, offset: 0x13AEB, size: 0x8, addend: 0x0, symName: __ZNSt3__112basic_stringIcNS_11char_traitsIcEENS_9allocatorIcEEEC2B8ue170006Emc, symObjAddr: 0x8AE4, symBinAddr: 0x10000AA54, symSize: 0x4C }
  - { offsetInCU: 0x13B32, offset: 0x13B32, size: 0x8, addend: 0x0, symName: __ZNSt3__119ostreambuf_iteratorIcNS_11char_traitsIcEEEC2B8ue170006ERNS_13basic_ostreamIcS2_EE, symObjAddr: 0x8B30, symBinAddr: 0x10000AAA0, symSize: 0x68 }
  - { offsetInCU: 0x13B68, offset: 0x13B68, size: 0x8, addend: 0x0, symName: __ZNKSt3__19basic_iosIcNS_11char_traitsIcEEE5rdbufB8ue170006Ev, symObjAddr: 0x8B98, symBinAddr: 0x10000AB08, symSize: 0x24 }
  - { offsetInCU: 0x13B8F, offset: 0x13B8F, size: 0x8, addend: 0x0, symName: __ZNKSt3__18ios_base5rdbufB8ue170006Ev, symObjAddr: 0x8BBC, symBinAddr: 0x10000AB2C, symSize: 0x18 }
  - { offsetInCU: 0x13BB4, offset: 0x13BB4, size: 0x8, addend: 0x0, symName: __ZNSt3__111char_traitsIcE11eq_int_typeB8ue170006Eii, symObjAddr: 0x8BD4, symBinAddr: 0x10000AB44, symSize: 0x28 }
  - { offsetInCU: 0x13BE7, offset: 0x13BE7, size: 0x8, addend: 0x0, symName: __ZNSt3__111char_traitsIcE3eofB8ue170006Ev, symObjAddr: 0x8BFC, symBinAddr: 0x10000AB6C, symSize: 0x8 }
  - { offsetInCU: 0x13BFA, offset: 0x13BFA, size: 0x8, addend: 0x0, symName: __ZNKSt3__19basic_iosIcNS_11char_traitsIcEEE5widenB8ue170006Ec, symObjAddr: 0x8C04, symBinAddr: 0x10000AB74, symSize: 0x8C }
  - { offsetInCU: 0x13C67, offset: 0x13C67, size: 0x8, addend: 0x0, symName: __ZNKSt3__15ctypeIcE5widenB8ue170006Ec, symObjAddr: 0x8CBC, symBinAddr: 0x10000AC2C, symSize: 0x38 }
  - { offsetInCU: 0x13C9A, offset: 0x13C9A, size: 0x8, addend: 0x0, symName: __ZNSt3__18ios_base8setstateB8ue170006Ej, symObjAddr: 0x8CF4, symBinAddr: 0x10000AC64, symSize: 0x34 }
  - { offsetInCU: 0x13CD0, offset: 0x13CD0, size: 0x8, addend: 0x0, symName: __ZNSt3__18ios_base9precisionB8ue170006El, symObjAddr: 0x8D28, symBinAddr: 0x10000AC98, symSize: 0x2C }
...
